GAS LISTING C:\Users\jeroe\AppData\Local\Temp/ccgfX1oo.s 			page 1


   1               		.file	"lcd.c"
   2               		.arch atmega128
   3               	__SREG__ = 0x3f
   4               	__SP_H__ = 0x3e
   5               	__SP_L__ = 0x3d
   6               	__tmp_reg__ = 0
   7               	__zero_reg__ = 1
   8               		.global __do_copy_data
   9               		.global __do_clear_bss
  10               		.section	.debug_abbrev,"",@progbits
  11               	.Ldebug_abbrev0:
  12               		.section	.debug_info,"",@progbits
  13               	.Ldebug_info0:
  14               		.section	.debug_line,"",@progbits
  15               	.Ldebug_line0:
  16               		.text
  17               	.Ltext0:
  18               	.global	lcd_command
  19               		.type	lcd_command, @function
  20               	lcd_command:
  21               	.LFB7:
  22               	.LM1:
  23               	/* prologue: frame size=0 */
  24               	/* prologue end (size=0) */
  25               	.LVL0:
  26               	.LM2:
  27 0000 982F      		mov r25,r24
  28 0002 907F      		andi r25,lo8(-16)
  29 0004 95BB      		out 53-0x20,r25
  30               	.LM3:
  31 0006 AB9A      		sbi 53-0x20,3
  32               	.LBB48:
  33               	.LBB49:
  34               	.LBB50:
  35               	.LBB51:
  36               	.LM4:
  37 0008 E0ED      		ldi r30,lo8(2000)
  38 000a F7E0      		ldi r31,hi8(2000)
  39 000c DF01      		movw r26,r30
  40               	.LVL1:
  41               	/* #APP */
  42 000e 1197      		1: sbiw r26,1
  43 0010 01F4      		brne 1b
  44               	/* #NOAPP */
  45               	.LBE51:
  46               	.LBE50:
  47               	.LBE49:
  48               	.LBE48:
  49               	.LM5:
  50 0012 94E0      		ldi r25,lo8(4)
  51 0014 95BB      		out 53-0x20,r25
  52               	.LM6:
  53 0016 8295      		swap r24
  54 0018 807F      		andi r24,0xf0
  55 001a 85BB      		out 53-0x20,r24
  56               	.LM7:
  57 001c AB9A      		sbi 53-0x20,3
GAS LISTING C:\Users\jeroe\AppData\Local\Temp/ccgfX1oo.s 			page 2


  58               	.LBB52:
  59               	.LBB53:
  60               	.LBB54:
  61               	.LBB55:
  62               	.LM8:
  63               	/* #APP */
  64 001e 3197      		1: sbiw r30,1
  65 0020 01F4      		brne 1b
  66               	.LVL2:
  67               	/* #NOAPP */
  68               	.LBE55:
  69               	.LBE54:
  70               	.LBE53:
  71               	.LBE52:
  72               	.LM9:
  73 0022 15BA      		out 53-0x20,__zero_reg__
  74               	/* epilogue: frame size=0 */
  75 0024 0895      		ret
  76               	/* epilogue end (size=1) */
  77               	/* function lcd_command size 23 (22) */
  78               	.LFE7:
  79               		.size	lcd_command, .-lcd_command
  80               	.global	clearDisplay
  81               		.type	clearDisplay, @function
  82               	clearDisplay:
  83               	.LFB8:
  84               	.LM10:
  85               	/* prologue: frame size=0 */
  86               	/* prologue end (size=0) */
  87               	.LM11:
  88 0026 81E0      		ldi r24,lo8(1)
  89 0028 0E94 0000 		call lcd_command
  90               	/* epilogue: frame size=0 */
  91 002c 0895      		ret
  92               	/* epilogue end (size=1) */
  93               	/* function clearDisplay size 4 (3) */
  94               	.LFE8:
  95               		.size	clearDisplay, .-clearDisplay
  96               	.global	init
  97               		.type	init, @function
  98               	init:
  99               	.LFB10:
 100               	.LM12:
 101               	/* prologue: frame size=0 */
 102 002e EF92      		push r14
 103 0030 FF92      		push r15
 104 0032 0F93      		push r16
 105 0034 1F93      		push r17
 106               	/* prologue end (size=4) */
 107               	.LBB56:
 108               	.LBB57:
 109               	.LBB58:
 110               	.LBB59:
 111               	.LM13:
 112 0036 EE24      		clr r14
 113 0038 FF24      		clr r15
 114 003a C701      		movw r24,r14
GAS LISTING C:\Users\jeroe\AppData\Local\Temp/ccgfX1oo.s 			page 3


 115               	.LVL3:
 116               	/* #APP */
 117 003c 0197      		1: sbiw r24,1
 118 003e 01F4      		brne 1b
 119               	/* #NOAPP */
 120               	.LBE59:
 121               	.LBE58:
 122               	.LBE57:
 123               	.LBE56:
 124               	.LM14:
 125 0040 82E0      		ldi r24,lo8(2)
 126               	.LVL4:
 127 0042 0E94 0000 		call lcd_command
 128               	.LBB60:
 129               	.LBB61:
 130               	.LBB62:
 131               	.LBB63:
 132               	.LM15:
 133 0046 00E3      		ldi r16,lo8(30000)
 134 0048 15E7      		ldi r17,hi8(30000)
 135 004a C801      		movw r24,r16
 136               	.LVL5:
 137               	/* #APP */
 138 004c 0197      		1: sbiw r24,1
 139 004e 01F4      		brne 1b
 140               	/* #NOAPP */
 141               	.LBE63:
 142               	.LBE62:
 143               	.LBE61:
 144               	.LBE60:
 145               	.LM16:
 146 0050 88E2      		ldi r24,lo8(40)
 147               	.LVL6:
 148 0052 0E94 0000 		call lcd_command
 149               	.LBB64:
 150               	.LBB65:
 151               	.LBB66:
 152               	.LBB67:
 153               	.LM17:
 154 0056 C801      		movw r24,r16
 155               	.LVL7:
 156               	/* #APP */
 157 0058 0197      		1: sbiw r24,1
 158 005a 01F4      		brne 1b
 159               	/* #NOAPP */
 160               	.LBE67:
 161               	.LBE66:
 162               	.LBE65:
 163               	.LBE64:
 164               	.LM18:
 165 005c 8EE0      		ldi r24,lo8(14)
 166               	.LVL8:
 167 005e 0E94 0000 		call lcd_command
 168               	.LBB68:
 169               	.LBB69:
 170               	.LBB70:
 171               	.LBB71:
GAS LISTING C:\Users\jeroe\AppData\Local\Temp/ccgfX1oo.s 			page 4


 172               	.LM19:
 173 0062 C801      		movw r24,r16
 174               	.LVL9:
 175               	/* #APP */
 176 0064 0197      		1: sbiw r24,1
 177 0066 01F4      		brne 1b
 178               	/* #NOAPP */
 179               	.LBE71:
 180               	.LBE70:
 181               	.LBE69:
 182               	.LBE68:
 183               	.LM20:
 184 0068 86E0      		ldi r24,lo8(6)
 185               	.LVL10:
 186 006a 0E94 0000 		call lcd_command
 187               	.LBB72:
 188               	.LBB73:
 189               	.LBB74:
 190               	.LBB75:
 191               	.LM21:
 192 006e C801      		movw r24,r16
 193               	/* #APP */
 194 0070 0197      		1: sbiw r24,1
 195 0072 01F4      		brne 1b
 196               	/* #NOAPP */
 197               	.LBE75:
 198               	.LBE74:
 199               	.LBE73:
 200               	.LBE72:
 201               	.LM22:
 202 0074 80E8      		ldi r24,lo8(-128)
 203 0076 0E94 0000 		call lcd_command
 204               	.LBB76:
 205               	.LBB77:
 206               	.LBB78:
 207               	.LBB79:
 208               	.LM23:
 209 007a C701      		movw r24,r14
 210               	/* #APP */
 211 007c 0197      		1: sbiw r24,1
 212 007e 01F4      		brne 1b
 213               	/* #NOAPP */
 214               	.LBE79:
 215               	.LBE78:
 216               	.LBE77:
 217               	.LBE76:
 218               	.LM24:
 219 0080 0E94 0000 		call clearDisplay
 220               	/* epilogue: frame size=0 */
 221 0084 1F91      		pop r17
 222 0086 0F91      		pop r16
 223 0088 FF90      		pop r15
 224 008a EF90      		pop r14
 225 008c 0895      		ret
 226               	/* epilogue end (size=5) */
 227               	/* function init size 60 (51) */
 228               	.LFE10:
GAS LISTING C:\Users\jeroe\AppData\Local\Temp/ccgfX1oo.s 			page 5


 229               		.size	init, .-init
 230               	.global	toggleE
 231               		.type	toggleE, @function
 232               	toggleE:
 233               	.LFB11:
 234               	.LM25:
 235               	/* prologue: frame size=0 */
 236               	/* prologue end (size=0) */
 237               	.LM26:
 238 008e AB9A      		sbi 53-0x20,3
 239               	.LM27:
 240 0090 AB98      		cbi 53-0x20,3
 241               	/* epilogue: frame size=0 */
 242 0092 0895      		ret
 243               	/* epilogue end (size=1) */
 244               	/* function toggleE size 3 (2) */
 245               	.LFE11:
 246               		.size	toggleE, .-toggleE
 247               	.global	lcd_setLine
 248               		.type	lcd_setLine, @function
 249               	lcd_setLine:
 250               	.LFB15:
 251               	.LM28:
 252               	/* prologue: frame size=0 */
 253               	/* prologue end (size=0) */
 254               	.LVL11:
 255               	.LM29:
 256 0094 8130      		cpi r24,1
 257 0096 9105      		cpc r25,__zero_reg__
 258 0098 01F0      		breq .L15
 259               	.LM30:
 260 009a 0297      		sbiw r24,2
 261 009c 01F4      		brne .L15
 262               	.LM31:
 263 009e 80EC      		ldi r24,lo8(-64)
 264               	.LVL12:
 265 00a0 00C0      		rjmp .L16
 266               	.LVL13:
 267               	.L15:
 268               	.LM32:
 269 00a2 80E8      		ldi r24,lo8(-128)
 270               	.LVL14:
 271               	.L16:
 272 00a4 0E94 0000 		call lcd_command
 273 00a8 0895      		ret
 274               	/* epilogue: frame size=0 */
 275               	/* epilogue: noreturn */
 276               	/* epilogue end (size=0) */
 277               	/* function lcd_setLine size 12 (12) */
 278               	.LFE15:
 279               		.size	lcd_setLine, .-lcd_setLine
 280               	.global	lcd_writeChar
 281               		.type	lcd_writeChar, @function
 282               	lcd_writeChar:
 283               	.LFB16:
 284               	.LM33:
 285               	/* prologue: frame size=0 */
GAS LISTING C:\Users\jeroe\AppData\Local\Temp/ccgfX1oo.s 			page 6


 286               	/* prologue end (size=0) */
 287               	.LVL15:
 288               	.LM34:
 289 00aa 982F      		mov r25,r24
 290 00ac 907F      		andi r25,lo8(-16)
 291 00ae 95BB      		out 53-0x20,r25
 292               	.LM35:
 293 00b0 95B3      		in r25,53-0x20
 294 00b2 9C60      		ori r25,lo8(12)
 295 00b4 95BB      		out 53-0x20,r25
 296               	.LBB80:
 297               	.LBB81:
 298               	.LBB82:
 299               	.LBB83:
 300               	.LM36:
 301 00b6 E0ED      		ldi r30,lo8(2000)
 302 00b8 F7E0      		ldi r31,hi8(2000)
 303 00ba DF01      		movw r26,r30
 304               	.LVL16:
 305               	/* #APP */
 306 00bc 1197      		1: sbiw r26,1
 307 00be 01F4      		brne 1b
 308               	/* #NOAPP */
 309               	.LBE83:
 310               	.LBE82:
 311               	.LBE81:
 312               	.LBE80:
 313               	.LM37:
 314 00c0 94E0      		ldi r25,lo8(4)
 315 00c2 95BB      		out 53-0x20,r25
 316               	.LM38:
 317 00c4 8295      		swap r24
 318 00c6 807F      		andi r24,0xf0
 319 00c8 85BB      		out 53-0x20,r24
 320               	.LM39:
 321 00ca 85B3      		in r24,53-0x20
 322               	.LVL17:
 323 00cc 8C60      		ori r24,lo8(12)
 324 00ce 85BB      		out 53-0x20,r24
 325               	.LBB84:
 326               	.LBB85:
 327               	.LBB86:
 328               	.LBB87:
 329               	.LM40:
 330               	/* #APP */
 331 00d0 3197      		1: sbiw r30,1
 332 00d2 01F4      		brne 1b
 333               	.LVL18:
 334               	/* #NOAPP */
 335               	.LBE87:
 336               	.LBE86:
 337               	.LBE85:
 338               	.LBE84:
 339               	.LM41:
 340 00d4 15BA      		out 53-0x20,__zero_reg__
 341               	.LBB88:
 342               	.LBB89:
GAS LISTING C:\Users\jeroe\AppData\Local\Temp/ccgfX1oo.s 			page 7


 343               	.LBB90:
 344               	.LBB91:
 345               	.LM42:
 346 00d6 80E3      		ldi r24,lo8(30000)
 347 00d8 95E7      		ldi r25,hi8(30000)
 348               	.LVL19:
 349               	/* #APP */
 350 00da 0197      		1: sbiw r24,1
 351 00dc 01F4      		brne 1b
 352               	/* #NOAPP */
 353               	.LBE91:
 354               	.LBE90:
 355               	.LBE89:
 356               	.LBE88:
 357               	/* epilogue: frame size=0 */
 358 00de 0895      		ret
 359               	/* epilogue end (size=1) */
 360               	/* function lcd_writeChar size 33 (32) */
 361               	.LFE16:
 362               		.size	lcd_writeChar, .-lcd_writeChar
 363               	.global	display_text_noscroll
 364               		.type	display_text_noscroll, @function
 365               	display_text_noscroll:
 366               	.LFB14:
 367               	.LM43:
 368               	/* prologue: frame size=0 */
 369 00e0 A0E0      		ldi r26,lo8(0)
 370 00e2 B0E0      		ldi r27,hi8(0)
 371 00e4 E0E0      		ldi r30,lo8(gs(1f))
 372 00e6 F0E0      		ldi r31,hi8(gs(1f))
 373 00e8 0C94 0000 		jmp __prologue_saves__+20
 374               	1:
 375               	/* prologue end (size=6) */
 376               	.LVL20:
 377 00ec 7C01      		movw r14,r24
 378 00ee 6B01      		movw r12,r22
 379               	.LM44:
 380 00f0 FC01      		movw r30,r24
 381 00f2 0190      		ld __tmp_reg__,Z+
 382 00f4 0020      		tst __tmp_reg__
 383 00f6 01F4      		brne .-6
 384 00f8 8F01      		movw r16,r30
 385               	.LVL21:
 386 00fa 0150      		subi r16,lo8(-(-1))
 387 00fc 1040      		sbci r17,hi8(-(-1))
 388 00fe 081B      		sub r16,r24
 389 0100 190B      		sbc r17,r25
 390               	.LM45:
 391 0102 CB01      		movw r24,r22
 392               	.LVL22:
 393 0104 0E94 0000 		call lcd_setLine
 394               	.LVL23:
 395               	.LM46:
 396 0108 0131      		cpi r16,17
 397 010a 1105      		cpc r17,__zero_reg__
 398 010c 04F4      		brge .L20
 399               	.LM47:
GAS LISTING C:\Users\jeroe\AppData\Local\Temp/ccgfX1oo.s 			page 8


 400 010e C0E0      		ldi r28,lo8(0)
 401 0110 D0E0      		ldi r29,hi8(0)
 402               	.LVL24:
 403 0112 00C0      		rjmp .L22
 404               	.LVL25:
 405               	.L20:
 406 0114 E701      		movw r28,r14
 407 0116 8701      		movw r16,r14
 408               	.LVL26:
 409 0118 005F      		subi r16,lo8(-(16))
 410 011a 1F4F      		sbci r17,hi8(-(16))
 411               	.L23:
 412               	.LBB92:
 413               	.LM48:
 414 011c 8991      		ld r24,Y+
 415 011e 0E94 0000 		call lcd_writeChar
 416               	.LM49:
 417 0122 C017      		cp r28,r16
 418 0124 D107      		cpc r29,r17
 419 0126 01F4      		brne .L23
 420               	.LVL27:
 421               	.LBE92:
 422               	.LM50:
 423 0128 C601      		movw r24,r12
 424 012a 0E94 0000 		call lcd_setLine
 425 012e C0E1      		ldi r28,lo8(16)
 426 0130 D0E0      		ldi r29,hi8(16)
 427               	.LVL28:
 428 0132 8701      		movw r16,r14
 429 0134 005F      		subi r16,lo8(-(16))
 430 0136 1F4F      		sbci r17,hi8(-(16))
 431 0138 00C0      		rjmp .L25
 432               	.L26:
 433               	.LBB93:
 434               	.LM51:
 435 013a F801      		movw r30,r16
 436 013c 8191      		ld r24,Z+
 437 013e 8F01      		movw r16,r30
 438 0140 0E94 0000 		call lcd_writeChar
 439               	.LM52:
 440 0144 2196      		adiw r28,1
 441               	.L25:
 442 0146 F701      		movw r30,r14
 443 0148 0190      		ld __tmp_reg__,Z+
 444 014a 0020      		tst __tmp_reg__
 445 014c 01F4      		brne .-6
 446 014e 3197      		sbiw r30,1
 447 0150 EE19      		sub r30,r14
 448 0152 FF09      		sbc r31,r15
 449 0154 CE17      		cp r28,r30
 450 0156 DF07      		cpc r29,r31
 451 0158 00F0      		brlo .L26
 452 015a 00C0      		rjmp .L29
 453               	.LVL29:
 454               	.L28:
 455               	.LBE93:
 456               	.LBB94:
GAS LISTING C:\Users\jeroe\AppData\Local\Temp/ccgfX1oo.s 			page 9


 457               	.LBB95:
 458               	.LM53:
 459 015c F701      		movw r30,r14
 460 015e EC0F      		add r30,r28
 461 0160 FD1F      		adc r31,r29
 462 0162 8081      		ld r24,Z
 463 0164 0E94 0000 		call lcd_writeChar
 464               	.LM54:
 465 0168 2196      		adiw r28,1
 466               	.L22:
 467 016a F701      		movw r30,r14
 468 016c 0190      		ld __tmp_reg__,Z+
 469 016e 0020      		tst __tmp_reg__
 470 0170 01F4      		brne .-6
 471 0172 3197      		sbiw r30,1
 472 0174 EE19      		sub r30,r14
 473 0176 FF09      		sbc r31,r15
 474 0178 CE17      		cp r28,r30
 475 017a DF07      		cpc r29,r31
 476 017c 00F0      		brlo .L28
 477               	.LVL30:
 478               	.L29:
 479               	.LBE95:
 480               	.LBE94:
 481               	/* epilogue: frame size=0 */
 482 017e E8E0      		ldi r30,8
 483 0180 CDB7      		in r28,__SP_L__
 484 0182 DEB7      		in r29,__SP_H__
 485 0184 0C94 0000 		jmp __epilogue_restores__+20
 486               	/* epilogue end (size=5) */
 487               	/* function display_text_noscroll size 84 (73) */
 488               	.LFE14:
 489               		.size	display_text_noscroll, .-display_text_noscroll
 490               	.global	display_text_scroll
 491               		.type	display_text_scroll, @function
 492               	display_text_scroll:
 493               	.LFB13:
 494               	.LM55:
 495               	/* prologue: frame size=0 */
 496 0188 EF92      		push r14
 497 018a FF92      		push r15
 498 018c 0F93      		push r16
 499 018e 1F93      		push r17
 500               	/* prologue end (size=4) */
 501               	.LVL31:
 502 0190 7C01      		movw r14,r24
 503 0192 8B01      		movw r16,r22
 504               	.LM56:
 505 0194 88E1      		ldi r24,lo8(24)
 506               	.LVL32:
 507 0196 0E94 0000 		call lcd_command
 508               	.LVL33:
 509               	.LM57:
 510 019a B801      		movw r22,r16
 511 019c C701      		movw r24,r14
 512 019e 0E94 0000 		call display_text_noscroll
 513               	/* epilogue: frame size=0 */
GAS LISTING C:\Users\jeroe\AppData\Local\Temp/ccgfX1oo.s 			page 10


 514 01a2 1F91      		pop r17
 515 01a4 0F91      		pop r16
 516 01a6 FF90      		pop r15
 517 01a8 EF90      		pop r14
 518 01aa 0895      		ret
 519               	/* epilogue end (size=5) */
 520               	/* function display_text_scroll size 18 (9) */
 521               	.LFE13:
 522               		.size	display_text_scroll, .-display_text_scroll
 523               	.global	display_text
 524               		.type	display_text, @function
 525               	display_text:
 526               	.LFB12:
 527               	.LM58:
 528               	/* prologue: frame size=0 */
 529               	/* prologue end (size=0) */
 530               	.LVL34:
 531               	.LM59:
 532 01ac 4130      		cpi r20,1
 533 01ae 5105      		cpc r21,__zero_reg__
 534 01b0 01F0      		breq .L36
 535               	.LM60:
 536 01b2 0E94 0000 		call display_text_noscroll
 537               	.LVL35:
 538 01b6 0895      		ret
 539               	.LVL36:
 540               	.L36:
 541               	.LM61:
 542 01b8 0E94 0000 		call display_text_scroll
 543               	.LVL37:
 544 01bc 0895      		ret
 545               	/* epilogue: frame size=0 */
 546               	/* epilogue: noreturn */
 547               	/* epilogue end (size=0) */
 548               	/* function display_text size 9 (9) */
 549               	.LFE12:
 550               		.size	display_text, .-display_text
 551               	.global	wait
 552               		.type	wait, @function
 553               	wait:
 554               	.LFB6:
 555               	.LM62:
 556               	/* prologue: frame size=0 */
 557               	/* prologue end (size=0) */
 558               	.LVL38:
 559 01be AC01      		movw r20,r24
 560 01c0 20E0      		ldi r18,lo8(0)
 561 01c2 30E0      		ldi r19,hi8(0)
 562               	.LVL39:
 563 01c4 E0ED      		ldi r30,lo8(2000)
 564 01c6 F7E0      		ldi r31,hi8(2000)
 565 01c8 00C0      		rjmp .L40
 566               	.LVL40:
 567               	.L41:
 568               	.LBB101:
 569               	.LBB102:
 570               	.LBB103:
GAS LISTING C:\Users\jeroe\AppData\Local\Temp/ccgfX1oo.s 			page 11


 571               	.LBB104:
 572               	.LBB105:
 573               	.LM63:
 574 01ca CF01      		movw r24,r30
 575               	/* #APP */
 576 01cc 0197      		1: sbiw r24,1
 577 01ce 01F4      		brne 1b
 578               	/* #NOAPP */
 579               	.LBE105:
 580               	.LBE104:
 581               	.LBE103:
 582               	.LBE102:
 583               	.LM64:
 584 01d0 2F5F      		subi r18,lo8(-(1))
 585 01d2 3F4F      		sbci r19,hi8(-(1))
 586               	.LVL41:
 587               	.L40:
 588 01d4 4217      		cp r20,r18
 589 01d6 5307      		cpc r21,r19
 590 01d8 04F4      		brge .L41
 591               	.LBE101:
 592               	/* epilogue: frame size=0 */
 593 01da 0895      		ret
 594               	/* epilogue end (size=1) */
 595               	/* function wait size 17 (16) */
 596               	.LFE6:
 597               		.size	wait, .-wait
 598               		.data
 599               	.LC0:
 600 0000 4861 6C6C 		.string	"Hallo iedereen"
 600      6F20 6965 
 600      6465 7265 
 600      656E 00
 601 000f 00        		.string	""
 602               		.text
 603               	.global	main
 604               		.type	main, @function
 605               	main:
 606               	.LFB9:
 607               	.LM65:
 608               	/* prologue: frame size=16 */
 609 01dc A0E1      		ldi r26,lo8(16)
 610 01de B0E0      		ldi r27,hi8(16)
 611 01e0 E0E0      		ldi r30,lo8(gs(1f))
 612 01e2 F0E0      		ldi r31,hi8(gs(1f))
 613 01e4 0C94 0000 		jmp __prologue_saves__+32
 614               	1:
 615               	/* prologue end (size=6) */
 616               	.LM66:
 617 01e8 8FEF      		ldi r24,lo8(-1)
 618 01ea 84BB      		out 52-0x20,r24
 619               	.LM67:
 620 01ec 15BA      		out 53-0x20,__zero_reg__
 621               	.LBB114:
 622               	.LBB115:
 623               	.LBB116:
 624               	.LBB117:
GAS LISTING C:\Users\jeroe\AppData\Local\Temp/ccgfX1oo.s 			page 12


 625               	.LM68:
 626 01ee 80E4      		ldi r24,lo8(-25536)
 627 01f0 9CE9      		ldi r25,hi8(-25536)
 628               	.LVL42:
 629               	/* #APP */
 630 01f2 0197      		1: sbiw r24,1
 631 01f4 01F4      		brne 1b
 632               	/* #NOAPP */
 633               	.LBE117:
 634               	.LBE116:
 635               	.LBE115:
 636               	.LBE114:
 637               	.LM69:
 638 01f6 0E94 0000 		call init
 639               	.LVL43:
 640               	.LBB118:
 641               	.LBB119:
 642               	.LBB120:
 643               	.LBB121:
 644               	.LM70:
 645 01fa 80E2      		ldi r24,lo8(20000)
 646 01fc 9EE4      		ldi r25,hi8(20000)
 647               	.LVL44:
 648               	/* #APP */
 649 01fe 0197      		1: sbiw r24,1
 650 0200 01F4      		brne 1b
 651               	/* #NOAPP */
 652               	.LBE121:
 653               	.LBE120:
 654               	.LBE119:
 655               	.LBE118:
 656               	.LM71:
 657 0202 DE01      		movw r26,r28
 658 0204 1196      		adiw r26,1
 659 0206 E0E0      		ldi r30,lo8(.LC0)
 660 0208 F0E0      		ldi r31,hi8(.LC0)
 661 020a 80E1      		ldi r24,lo8(16)
 662               	.LVL45:
 663               	.L45:
 664               	.LM72:
 665 020c 0190      		ld r0,Z+
 666 020e 0D92      		st X+,r0
 667 0210 8150      		subi r24,lo8(-(-1))
 668 0212 01F4      		brne .L45
 669               	.LM73:
 670 0214 40E0      		ldi r20,lo8(0)
 671 0216 50E0      		ldi r21,hi8(0)
 672 0218 61E0      		ldi r22,lo8(1)
 673 021a 70E0      		ldi r23,hi8(1)
 674 021c CE01      		movw r24,r28
 675 021e 0196      		adiw r24,1
 676 0220 0E94 0000 		call display_text
 677               	/* epilogue: frame size=16 */
 678 0224 E2E0      		ldi r30,2
 679 0226 6096      		adiw r28,16
 680 0228 0C94 0000 		jmp __epilogue_restores__+32
 681               	/* epilogue end (size=4) */
GAS LISTING C:\Users\jeroe\AppData\Local\Temp/ccgfX1oo.s 			page 13


 682               	/* function main size 45 (35) */
 683               	.LFE9:
 684               		.size	main, .-main
 685               		.section	.debug_frame,"",@progbits
 686               	.Lframe0:
 687 0000 0C00 0000 		.long	.LECIE0-.LSCIE0
 688               	.LSCIE0:
 689 0004 FFFF FFFF 		.long	0xffffffff
 690 0008 01        		.byte	0x1
 691 0009 00        		.string	""
 692 000a 01        		.uleb128 0x1
 693 000b 7F        		.sleb128 -1
 694 000c 24        		.byte	0x24
 695 000d 0C        		.byte	0xc
 696 000e 20        		.uleb128 0x20
 697 000f 00        		.uleb128 0x0
 698               		.p2align	2
 699               	.LECIE0:
 700               	.LSFDE0:
 701 0010 0C00 0000 		.long	.LEFDE0-.LASFDE0
 702               	.LASFDE0:
 703 0014 0000 0000 		.long	.Lframe0
 704 0018 0000 0000 		.long	.LFB7
 705 001c 2600 0000 		.long	.LFE7-.LFB7
 706               		.p2align	2
 707               	.LEFDE0:
 708               	.LSFDE2:
 709 0020 0C00 0000 		.long	.LEFDE2-.LASFDE2
 710               	.LASFDE2:
 711 0024 0000 0000 		.long	.Lframe0
 712 0028 0000 0000 		.long	.LFB8
 713 002c 0800 0000 		.long	.LFE8-.LFB8
 714               		.p2align	2
 715               	.LEFDE2:
 716               	.LSFDE4:
 717 0030 0C00 0000 		.long	.LEFDE4-.LASFDE4
 718               	.LASFDE4:
 719 0034 0000 0000 		.long	.Lframe0
 720 0038 0000 0000 		.long	.LFB10
 721 003c 6000 0000 		.long	.LFE10-.LFB10
 722               		.p2align	2
 723               	.LEFDE4:
 724               	.LSFDE6:
 725 0040 0C00 0000 		.long	.LEFDE6-.LASFDE6
 726               	.LASFDE6:
 727 0044 0000 0000 		.long	.Lframe0
 728 0048 0000 0000 		.long	.LFB11
 729 004c 0600 0000 		.long	.LFE11-.LFB11
 730               		.p2align	2
 731               	.LEFDE6:
 732               	.LSFDE8:
 733 0050 0C00 0000 		.long	.LEFDE8-.LASFDE8
 734               	.LASFDE8:
 735 0054 0000 0000 		.long	.Lframe0
 736 0058 0000 0000 		.long	.LFB15
 737 005c 1600 0000 		.long	.LFE15-.LFB15
 738               		.p2align	2
GAS LISTING C:\Users\jeroe\AppData\Local\Temp/ccgfX1oo.s 			page 14


 739               	.LEFDE8:
 740               	.LSFDE10:
 741 0060 0C00 0000 		.long	.LEFDE10-.LASFDE10
 742               	.LASFDE10:
 743 0064 0000 0000 		.long	.Lframe0
 744 0068 0000 0000 		.long	.LFB16
 745 006c 3600 0000 		.long	.LFE16-.LFB16
 746               		.p2align	2
 747               	.LEFDE10:
 748               	.LSFDE12:
 749 0070 0C00 0000 		.long	.LEFDE12-.LASFDE12
 750               	.LASFDE12:
 751 0074 0000 0000 		.long	.Lframe0
 752 0078 0000 0000 		.long	.LFB14
 753 007c A800 0000 		.long	.LFE14-.LFB14
 754               		.p2align	2
 755               	.LEFDE12:
 756               	.LSFDE14:
 757 0080 0C00 0000 		.long	.LEFDE14-.LASFDE14
 758               	.LASFDE14:
 759 0084 0000 0000 		.long	.Lframe0
 760 0088 0000 0000 		.long	.LFB13
 761 008c 2400 0000 		.long	.LFE13-.LFB13
 762               		.p2align	2
 763               	.LEFDE14:
 764               	.LSFDE16:
 765 0090 0C00 0000 		.long	.LEFDE16-.LASFDE16
 766               	.LASFDE16:
 767 0094 0000 0000 		.long	.Lframe0
 768 0098 0000 0000 		.long	.LFB12
 769 009c 1200 0000 		.long	.LFE12-.LFB12
 770               		.p2align	2
 771               	.LEFDE16:
 772               	.LSFDE18:
 773 00a0 0C00 0000 		.long	.LEFDE18-.LASFDE18
 774               	.LASFDE18:
 775 00a4 0000 0000 		.long	.Lframe0
 776 00a8 0000 0000 		.long	.LFB6
 777 00ac 1E00 0000 		.long	.LFE6-.LFB6
 778               		.p2align	2
 779               	.LEFDE18:
 780               	.LSFDE20:
 781 00b0 0C00 0000 		.long	.LEFDE20-.LASFDE20
 782               	.LASFDE20:
 783 00b4 0000 0000 		.long	.Lframe0
 784 00b8 0000 0000 		.long	.LFB9
 785 00bc 5000 0000 		.long	.LFE9-.LFB9
 786               		.p2align	2
 787               	.LEFDE20:
 788               		.text
 789               	.Letext0:
 790               		.section	.debug_line
 791 0000 7A03 0000 		.long	.LELT0-.LSLT0
 792               	.LSLT0:
 793 0004 0200      		.word	0x2
 794 0006 BF00 0000 		.long	.LELTP0-.LASLTP0
 795               	.LASLTP0:
GAS LISTING C:\Users\jeroe\AppData\Local\Temp/ccgfX1oo.s 			page 15


 796 000a 01        		.byte	0x1
 797 000b 01        		.byte	0x1
 798 000c F6        		.byte	0xf6
 799 000d F5        		.byte	0xf5
 800 000e 0A        		.byte	0xa
 801 000f 00        		.byte	0x0
 802 0010 01        		.byte	0x1
 803 0011 01        		.byte	0x1
 804 0012 01        		.byte	0x1
 805 0013 01        		.byte	0x1
 806 0014 00        		.byte	0x0
 807 0015 00        		.byte	0x0
 808 0016 00        		.byte	0x0
 809 0017 01        		.byte	0x1
 810 0018 633A 2F77 		.ascii	"c:/winavr-20070525/bin/../avr/include"
 810      696E 6176 
 810      722D 3230 
 810      3037 3035 
 810      3235 2F62 
 811 003d 00        		.byte	0
 812 003e 633A 5C77 		.ascii	"c:\\winavr-20070525\\bin\\../lib/gcc/avr/4.1.2/include"
 812      696E 6176 
 812      722D 3230 
 812      3037 3035 
 812      3235 5C62 
 813 0071 00        		.byte	0
 814 0072 00        		.byte	0x0
 815 0073 7374 6469 		.string	"stdint.h"
 815      6E74 2E68 
 815      00
 816 007c 01        		.uleb128 0x1
 817 007d 00        		.uleb128 0x0
 818 007e 00        		.uleb128 0x0
 819 007f 696E 7474 		.string	"inttypes.h"
 819      7970 6573 
 819      2E68 00
 820 008a 01        		.uleb128 0x1
 821 008b 00        		.uleb128 0x0
 822 008c 00        		.uleb128 0x0
 823 008d 7374 6464 		.string	"stddef.h"
 823      6566 2E68 
 823      00
 824 0096 02        		.uleb128 0x2
 825 0097 00        		.uleb128 0x0
 826 0098 00        		.uleb128 0x0
 827 0099 7574 696C 		.string	"util/delay_basic.h"
 827      2F64 656C 
 827      6179 5F62 
 827      6173 6963 
 827      2E68 00
 828 00ac 01        		.uleb128 0x1
 829 00ad 00        		.uleb128 0x0
 830 00ae 00        		.uleb128 0x0
 831 00af 7574 696C 		.string	"util/delay.h"
 831      2F64 656C 
 831      6179 2E68 
 831      00
GAS LISTING C:\Users\jeroe\AppData\Local\Temp/ccgfX1oo.s 			page 16


 832 00bc 01        		.uleb128 0x1
 833 00bd 00        		.uleb128 0x0
 834 00be 00        		.uleb128 0x0
 835 00bf 6C63 642E 		.string	"lcd.c"
 835      6300 
 836 00c5 00        		.uleb128 0x0
 837 00c6 00        		.uleb128 0x0
 838 00c7 00        		.uleb128 0x0
 839 00c8 00        		.byte	0x0
 840               	.LELTP0:
 841 00c9 00        		.byte	0x0
 842 00ca 05        		.uleb128 0x5
 843 00cb 02        		.byte	0x2
 844 00cc 0000 0000 		.long	.LM1
 845 00d0 04        		.byte	0x4
 846 00d1 06        		.uleb128 0x6
 847 00d2 21        		.byte	0x21
 848 00d3 00        		.byte	0x0
 849 00d4 05        		.uleb128 0x5
 850 00d5 02        		.byte	0x2
 851 00d6 0000 0000 		.long	.LM2
 852 00da 15        		.byte	0x15
 853 00db 00        		.byte	0x0
 854 00dc 05        		.uleb128 0x5
 855 00dd 02        		.byte	0x2
 856 00de 0000 0000 		.long	.LM3
 857 00e2 15        		.byte	0x15
 858 00e3 00        		.byte	0x0
 859 00e4 05        		.uleb128 0x5
 860 00e5 02        		.byte	0x2
 861 00e6 0000 0000 		.long	.LM4
 862 00ea 04        		.byte	0x4
 863 00eb 04        		.uleb128 0x4
 864 00ec 6D        		.byte	0x6d
 865 00ed 00        		.byte	0x0
 866 00ee 05        		.uleb128 0x5
 867 00ef 02        		.byte	0x2
 868 00f0 0000 0000 		.long	.LM5
 869 00f4 04        		.byte	0x4
 870 00f5 06        		.uleb128 0x6
 871 00f6 03        		.byte	0x3
 872 00f7 AA7F      		.sleb128 -86
 873 00f9 01        		.byte	0x1
 874 00fa 00        		.byte	0x0
 875 00fb 05        		.uleb128 0x5
 876 00fc 02        		.byte	0x2
 877 00fd 0000 0000 		.long	.LM6
 878 0101 16        		.byte	0x16
 879 0102 00        		.byte	0x0
 880 0103 05        		.uleb128 0x5
 881 0104 02        		.byte	0x2
 882 0105 0000 0000 		.long	.LM7
 883 0109 15        		.byte	0x15
 884 010a 00        		.byte	0x0
 885 010b 05        		.uleb128 0x5
 886 010c 02        		.byte	0x2
 887 010d 0000 0000 		.long	.LM8
GAS LISTING C:\Users\jeroe\AppData\Local\Temp/ccgfX1oo.s 			page 17


 888 0111 04        		.byte	0x4
 889 0112 04        		.uleb128 0x4
 890 0113 67        		.byte	0x67
 891 0114 00        		.byte	0x0
 892 0115 05        		.uleb128 0x5
 893 0116 02        		.byte	0x2
 894 0117 0000 0000 		.long	.LM9
 895 011b 04        		.byte	0x4
 896 011c 06        		.uleb128 0x6
 897 011d 03        		.byte	0x3
 898 011e B07F      		.sleb128 -80
 899 0120 01        		.byte	0x1
 900 0121 00        		.byte	0x0
 901 0122 05        		.uleb128 0x5
 902 0123 02        		.byte	0x2
 903 0124 0000 0000 		.long	.LM10
 904 0128 18        		.byte	0x18
 905 0129 00        		.byte	0x0
 906 012a 05        		.uleb128 0x5
 907 012b 02        		.byte	0x2
 908 012c 0000 0000 		.long	.LM11
 909 0130 15        		.byte	0x15
 910 0131 00        		.byte	0x0
 911 0132 05        		.uleb128 0x5
 912 0133 02        		.byte	0x2
 913 0134 0000 0000 		.long	.LM12
 914 0138 21        		.byte	0x21
 915 0139 00        		.byte	0x0
 916 013a 05        		.uleb128 0x5
 917 013b 02        		.byte	0x2
 918 013c 0000 0000 		.long	.LM13
 919 0140 04        		.byte	0x4
 920 0141 04        		.uleb128 0x4
 921 0142 52        		.byte	0x52
 922 0143 00        		.byte	0x0
 923 0144 05        		.uleb128 0x5
 924 0145 02        		.byte	0x2
 925 0146 0000 0000 		.long	.LM14
 926 014a 04        		.byte	0x4
 927 014b 06        		.uleb128 0x6
 928 014c 03        		.byte	0x3
 929 014d 44        		.sleb128 -60
 930 014e 01        		.byte	0x1
 931 014f 00        		.byte	0x0
 932 0150 05        		.uleb128 0x5
 933 0151 02        		.byte	0x2
 934 0152 0000 0000 		.long	.LM15
 935 0156 04        		.byte	0x4
 936 0157 04        		.uleb128 0x4
 937 0158 50        		.byte	0x50
 938 0159 00        		.byte	0x0
 939 015a 05        		.uleb128 0x5
 940 015b 02        		.byte	0x2
 941 015c 0000 0000 		.long	.LM16
 942 0160 04        		.byte	0x4
 943 0161 06        		.uleb128 0x6
 944 0162 03        		.byte	0x3
GAS LISTING C:\Users\jeroe\AppData\Local\Temp/ccgfX1oo.s 			page 18


 945 0163 46        		.sleb128 -58
 946 0164 01        		.byte	0x1
 947 0165 00        		.byte	0x0
 948 0166 05        		.uleb128 0x5
 949 0167 02        		.byte	0x2
 950 0168 0000 0000 		.long	.LM17
 951 016c 04        		.byte	0x4
 952 016d 04        		.uleb128 0x4
 953 016e 4E        		.byte	0x4e
 954 016f 00        		.byte	0x0
 955 0170 05        		.uleb128 0x5
 956 0171 02        		.byte	0x2
 957 0172 0000 0000 		.long	.LM18
 958 0176 04        		.byte	0x4
 959 0177 06        		.uleb128 0x6
 960 0178 03        		.byte	0x3
 961 0179 48        		.sleb128 -56
 962 017a 01        		.byte	0x1
 963 017b 00        		.byte	0x0
 964 017c 05        		.uleb128 0x5
 965 017d 02        		.byte	0x2
 966 017e 0000 0000 		.long	.LM19
 967 0182 04        		.byte	0x4
 968 0183 04        		.uleb128 0x4
 969 0184 4C        		.byte	0x4c
 970 0185 00        		.byte	0x0
 971 0186 05        		.uleb128 0x5
 972 0187 02        		.byte	0x2
 973 0188 0000 0000 		.long	.LM20
 974 018c 04        		.byte	0x4
 975 018d 06        		.uleb128 0x6
 976 018e 03        		.byte	0x3
 977 018f 4A        		.sleb128 -54
 978 0190 01        		.byte	0x1
 979 0191 00        		.byte	0x0
 980 0192 05        		.uleb128 0x5
 981 0193 02        		.byte	0x2
 982 0194 0000 0000 		.long	.LM21
 983 0198 04        		.byte	0x4
 984 0199 04        		.uleb128 0x4
 985 019a 4A        		.byte	0x4a
 986 019b 00        		.byte	0x0
 987 019c 05        		.uleb128 0x5
 988 019d 02        		.byte	0x2
 989 019e 0000 0000 		.long	.LM22
 990 01a2 04        		.byte	0x4
 991 01a3 06        		.uleb128 0x6
 992 01a4 03        		.byte	0x3
 993 01a5 4C        		.sleb128 -52
 994 01a6 01        		.byte	0x1
 995 01a7 00        		.byte	0x0
 996 01a8 05        		.uleb128 0x5
 997 01a9 02        		.byte	0x2
 998 01aa 0000 0000 		.long	.LM23
 999 01ae 04        		.byte	0x4
 1000 01af 04        		.uleb128 0x4
 1001 01b0 48        		.byte	0x48
GAS LISTING C:\Users\jeroe\AppData\Local\Temp/ccgfX1oo.s 			page 19


 1002 01b1 00        		.byte	0x0
 1003 01b2 05        		.uleb128 0x5
 1004 01b3 02        		.byte	0x2
 1005 01b4 0000 0000 		.long	.LM24
 1006 01b8 04        		.byte	0x4
 1007 01b9 06        		.uleb128 0x6
 1008 01ba 03        		.byte	0x3
 1009 01bb 4E        		.sleb128 -50
 1010 01bc 01        		.byte	0x1
 1011 01bd 00        		.byte	0x0
 1012 01be 05        		.uleb128 0x5
 1013 01bf 02        		.byte	0x2
 1014 01c0 0000 0000 		.long	.LM25
 1015 01c4 17        		.byte	0x17
 1016 01c5 00        		.byte	0x0
 1017 01c6 05        		.uleb128 0x5
 1018 01c7 02        		.byte	0x2
 1019 01c8 0000 0000 		.long	.LM26
 1020 01cc 15        		.byte	0x15
 1021 01cd 00        		.byte	0x0
 1022 01ce 05        		.uleb128 0x5
 1023 01cf 02        		.byte	0x2
 1024 01d0 0000 0000 		.long	.LM27
 1025 01d4 15        		.byte	0x15
 1026 01d5 00        		.byte	0x0
 1027 01d6 05        		.uleb128 0x5
 1028 01d7 02        		.byte	0x2
 1029 01d8 0000 0000 		.long	.LM28
 1030 01dc 42        		.byte	0x42
 1031 01dd 00        		.byte	0x0
 1032 01de 05        		.uleb128 0x5
 1033 01df 02        		.byte	0x2
 1034 01e0 0000 0000 		.long	.LM29
 1035 01e4 15        		.byte	0x15
 1036 01e5 00        		.byte	0x0
 1037 01e6 05        		.uleb128 0x5
 1038 01e7 02        		.byte	0x2
 1039 01e8 0000 0000 		.long	.LM30
 1040 01ec 01        		.byte	0x1
 1041 01ed 00        		.byte	0x0
 1042 01ee 05        		.uleb128 0x5
 1043 01ef 02        		.byte	0x2
 1044 01f0 0000 0000 		.long	.LM31
 1045 01f4 1A        		.byte	0x1a
 1046 01f5 00        		.byte	0x0
 1047 01f6 05        		.uleb128 0x5
 1048 01f7 02        		.byte	0x2
 1049 01f8 0000 0000 		.long	.LM32
 1050 01fc 17        		.byte	0x17
 1051 01fd 00        		.byte	0x0
 1052 01fe 05        		.uleb128 0x5
 1053 01ff 02        		.byte	0x2
 1054 0200 0000 0000 		.long	.LM33
 1055 0204 1B        		.byte	0x1b
 1056 0205 00        		.byte	0x0
 1057 0206 05        		.uleb128 0x5
 1058 0207 02        		.byte	0x2
GAS LISTING C:\Users\jeroe\AppData\Local\Temp/ccgfX1oo.s 			page 20


 1059 0208 0000 0000 		.long	.LM34
 1060 020c 15        		.byte	0x15
 1061 020d 00        		.byte	0x0
 1062 020e 05        		.uleb128 0x5
 1063 020f 02        		.byte	0x2
 1064 0210 0000 0000 		.long	.LM35
 1065 0214 15        		.byte	0x15
 1066 0215 00        		.byte	0x0
 1067 0216 05        		.uleb128 0x5
 1068 0217 02        		.byte	0x2
 1069 0218 0000 0000 		.long	.LM36
 1070 021c 04        		.byte	0x4
 1071 021d 04        		.uleb128 0x4
 1072 021e 03        		.byte	0x3
 1073 021f 6C        		.sleb128 -20
 1074 0220 01        		.byte	0x1
 1075 0221 00        		.byte	0x0
 1076 0222 05        		.uleb128 0x5
 1077 0223 02        		.byte	0x2
 1078 0224 0000 0000 		.long	.LM37
 1079 0228 04        		.byte	0x4
 1080 0229 06        		.uleb128 0x6
 1081 022a 2B        		.byte	0x2b
 1082 022b 00        		.byte	0x0
 1083 022c 05        		.uleb128 0x5
 1084 022d 02        		.byte	0x2
 1085 022e 0000 0000 		.long	.LM38
 1086 0232 16        		.byte	0x16
 1087 0233 00        		.byte	0x0
 1088 0234 05        		.uleb128 0x5
 1089 0235 02        		.byte	0x2
 1090 0236 0000 0000 		.long	.LM39
 1091 023a 15        		.byte	0x15
 1092 023b 00        		.byte	0x0
 1093 023c 05        		.uleb128 0x5
 1094 023d 02        		.byte	0x2
 1095 023e 0000 0000 		.long	.LM40
 1096 0242 04        		.byte	0x4
 1097 0243 04        		.uleb128 0x4
 1098 0244 03        		.byte	0x3
 1099 0245 66        		.sleb128 -26
 1100 0246 01        		.byte	0x1
 1101 0247 00        		.byte	0x0
 1102 0248 05        		.uleb128 0x5
 1103 0249 02        		.byte	0x2
 1104 024a 0000 0000 		.long	.LM41
 1105 024e 04        		.byte	0x4
 1106 024f 06        		.uleb128 0x6
 1107 0250 31        		.byte	0x31
 1108 0251 00        		.byte	0x0
 1109 0252 05        		.uleb128 0x5
 1110 0253 02        		.byte	0x2
 1111 0254 0000 0000 		.long	.LM42
 1112 0258 04        		.byte	0x4
 1113 0259 04        		.uleb128 0x4
 1114 025a 03        		.byte	0x3
 1115 025b 63        		.sleb128 -29
GAS LISTING C:\Users\jeroe\AppData\Local\Temp/ccgfX1oo.s 			page 21


 1116 025c 01        		.byte	0x1
 1117 025d 00        		.byte	0x0
 1118 025e 05        		.uleb128 0x5
 1119 025f 02        		.byte	0x2
 1120 0260 0000 0000 		.long	.LM43
 1121 0264 04        		.byte	0x4
 1122 0265 06        		.uleb128 0x6
 1123 0266 03        		.byte	0x3
 1124 0267 67        		.sleb128 -25
 1125 0268 01        		.byte	0x1
 1126 0269 00        		.byte	0x0
 1127 026a 05        		.uleb128 0x5
 1128 026b 02        		.byte	0x2
 1129 026c 0000 0000 		.long	.LM44
 1130 0270 15        		.byte	0x15
 1131 0271 00        		.byte	0x0
 1132 0272 05        		.uleb128 0x5
 1133 0273 02        		.byte	0x2
 1134 0274 0000 0000 		.long	.LM45
 1135 0278 15        		.byte	0x15
 1136 0279 00        		.byte	0x0
 1137 027a 05        		.uleb128 0x5
 1138 027b 02        		.byte	0x2
 1139 027c 0000 0000 		.long	.LM46
 1140 0280 15        		.byte	0x15
 1141 0281 00        		.byte	0x0
 1142 0282 05        		.uleb128 0x5
 1143 0283 02        		.byte	0x2
 1144 0284 0000 0000 		.long	.LM47
 1145 0288 01        		.byte	0x1
 1146 0289 00        		.byte	0x0
 1147 028a 05        		.uleb128 0x5
 1148 028b 02        		.byte	0x2
 1149 028c 0000 0000 		.long	.LM48
 1150 0290 19        		.byte	0x19
 1151 0291 00        		.byte	0x0
 1152 0292 05        		.uleb128 0x5
 1153 0293 02        		.byte	0x2
 1154 0294 0000 0000 		.long	.LM49
 1155 0298 12        		.byte	0x12
 1156 0299 00        		.byte	0x0
 1157 029a 05        		.uleb128 0x5
 1158 029b 02        		.byte	0x2
 1159 029c 0000 0000 		.long	.LM50
 1160 02a0 19        		.byte	0x19
 1161 02a1 00        		.byte	0x0
 1162 02a2 05        		.uleb128 0x5
 1163 02a3 02        		.byte	0x2
 1164 02a4 0000 0000 		.long	.LM51
 1165 02a8 17        		.byte	0x17
 1166 02a9 00        		.byte	0x0
 1167 02aa 05        		.uleb128 0x5
 1168 02ab 02        		.byte	0x2
 1169 02ac 0000 0000 		.long	.LM52
 1170 02b0 12        		.byte	0x12
 1171 02b1 00        		.byte	0x0
 1172 02b2 05        		.uleb128 0x5
GAS LISTING C:\Users\jeroe\AppData\Local\Temp/ccgfX1oo.s 			page 22


 1173 02b3 02        		.byte	0x2
 1174 02b4 0000 0000 		.long	.LM53
 1175 02b8 1D        		.byte	0x1d
 1176 02b9 00        		.byte	0x0
 1177 02ba 05        		.uleb128 0x5
 1178 02bb 02        		.byte	0x2
 1179 02bc 0000 0000 		.long	.LM54
 1180 02c0 13        		.byte	0x13
 1181 02c1 00        		.byte	0x0
 1182 02c2 05        		.uleb128 0x5
 1183 02c3 02        		.byte	0x2
 1184 02c4 0000 0000 		.long	.LM55
 1185 02c8 03        		.byte	0x3
 1186 02c9 67        		.sleb128 -25
 1187 02ca 01        		.byte	0x1
 1188 02cb 00        		.byte	0x0
 1189 02cc 05        		.uleb128 0x5
 1190 02cd 02        		.byte	0x2
 1191 02ce 0000 0000 		.long	.LM56
 1192 02d2 15        		.byte	0x15
 1193 02d3 00        		.byte	0x0
 1194 02d4 05        		.uleb128 0x5
 1195 02d5 02        		.byte	0x2
 1196 02d6 0000 0000 		.long	.LM57
 1197 02da 15        		.byte	0x15
 1198 02db 00        		.byte	0x0
 1199 02dc 05        		.uleb128 0x5
 1200 02dd 02        		.byte	0x2
 1201 02de 0000 0000 		.long	.LM58
 1202 02e2 03        		.byte	0x3
 1203 02e3 72        		.sleb128 -14
 1204 02e4 01        		.byte	0x1
 1205 02e5 00        		.byte	0x0
 1206 02e6 05        		.uleb128 0x5
 1207 02e7 02        		.byte	0x2
 1208 02e8 0000 0000 		.long	.LM59
 1209 02ec 15        		.byte	0x15
 1210 02ed 00        		.byte	0x0
 1211 02ee 05        		.uleb128 0x5
 1212 02ef 02        		.byte	0x2
 1213 02f0 0000 0000 		.long	.LM60
 1214 02f4 17        		.byte	0x17
 1215 02f5 00        		.byte	0x0
 1216 02f6 05        		.uleb128 0x5
 1217 02f7 02        		.byte	0x2
 1218 02f8 0000 0000 		.long	.LM61
 1219 02fc 17        		.byte	0x17
 1220 02fd 00        		.byte	0x0
 1221 02fe 05        		.uleb128 0x5
 1222 02ff 02        		.byte	0x2
 1223 0300 0000 0000 		.long	.LM62
 1224 0304 03        		.byte	0x3
 1225 0305 41        		.sleb128 -63
 1226 0306 01        		.byte	0x1
 1227 0307 00        		.byte	0x0
 1228 0308 05        		.uleb128 0x5
 1229 0309 02        		.byte	0x2
GAS LISTING C:\Users\jeroe\AppData\Local\Temp/ccgfX1oo.s 			page 23


 1230 030a 0000 0000 		.long	.LM63
 1231 030e 04        		.byte	0x4
 1232 030f 04        		.uleb128 0x4
 1233 0310 76        		.byte	0x76
 1234 0311 00        		.byte	0x0
 1235 0312 05        		.uleb128 0x5
 1236 0313 02        		.byte	0x2
 1237 0314 0000 0000 		.long	.LM64
 1238 0318 04        		.byte	0x4
 1239 0319 06        		.uleb128 0x6
 1240 031a 03        		.byte	0x3
 1241 031b 9F7F      		.sleb128 -97
 1242 031d 01        		.byte	0x1
 1243 031e 00        		.byte	0x0
 1244 031f 05        		.uleb128 0x5
 1245 0320 02        		.byte	0x2
 1246 0321 0000 0000 		.long	.LM65
 1247 0325 2D        		.byte	0x2d
 1248 0326 00        		.byte	0x0
 1249 0327 05        		.uleb128 0x5
 1250 0328 02        		.byte	0x2
 1251 0329 0000 0000 		.long	.LM66
 1252 032d 15        		.byte	0x15
 1253 032e 00        		.byte	0x0
 1254 032f 05        		.uleb128 0x5
 1255 0330 02        		.byte	0x2
 1256 0331 0000 0000 		.long	.LM67
 1257 0335 15        		.byte	0x15
 1258 0336 00        		.byte	0x0
 1259 0337 05        		.uleb128 0x5
 1260 0338 02        		.byte	0x2
 1261 0339 0000 0000 		.long	.LM68
 1262 033d 04        		.byte	0x4
 1263 033e 04        		.uleb128 0x4
 1264 033f 5A        		.byte	0x5a
 1265 0340 00        		.byte	0x0
 1266 0341 05        		.uleb128 0x5
 1267 0342 02        		.byte	0x2
 1268 0343 0000 0000 		.long	.LM69
 1269 0347 04        		.byte	0x4
 1270 0348 06        		.uleb128 0x6
 1271 0349 03        		.byte	0x3
 1272 034a BC7F      		.sleb128 -68
 1273 034c 01        		.byte	0x1
 1274 034d 00        		.byte	0x0
 1275 034e 05        		.uleb128 0x5
 1276 034f 02        		.byte	0x2
 1277 0350 0000 0000 		.long	.LM70
 1278 0354 04        		.byte	0x4
 1279 0355 04        		.uleb128 0x4
 1280 0356 58        		.byte	0x58
 1281 0357 00        		.byte	0x0
 1282 0358 05        		.uleb128 0x5
 1283 0359 02        		.byte	0x2
 1284 035a 0000 0000 		.long	.LM71
 1285 035e 04        		.byte	0x4
 1286 035f 06        		.uleb128 0x6
GAS LISTING C:\Users\jeroe\AppData\Local\Temp/ccgfX1oo.s 			page 24


 1287 0360 03        		.byte	0x3
 1288 0361 BE7F      		.sleb128 -66
 1289 0363 01        		.byte	0x1
 1290 0364 00        		.byte	0x0
 1291 0365 05        		.uleb128 0x5
 1292 0366 02        		.byte	0x2
 1293 0367 0000 0000 		.long	.LM72
 1294 036b 01        		.byte	0x1
 1295 036c 00        		.byte	0x0
 1296 036d 05        		.uleb128 0x5
 1297 036e 02        		.byte	0x2
 1298 036f 0000 0000 		.long	.LM73
 1299 0373 15        		.byte	0x15
 1300 0374 00        		.byte	0x0
 1301 0375 05        		.uleb128 0x5
 1302 0376 02        		.byte	0x2
 1303 0377 0000 0000 		.long	.Letext0
 1304 037b 00        		.byte	0x0
 1305 037c 01        		.uleb128 0x1
 1306 037d 01        		.byte	0x1
 1307               	.LELT0:
 1308 037e 1900 0000 		.section	.debug_loc,"",@progbits
 1308      0200 1300 
 1308      0000 0101 
 1308      FB0E 0D00 
 1308      0101 0101 
 1309               	.Ldebug_loc0:
 1310               	.LLST3:
 1311 0000 3C00 0000 		.long	.LVL3-.Ltext0
 1312 0004 4200 0000 		.long	.LVL4-.Ltext0
 1313 0008 0600      		.word	0x6
 1314 000a 68        		.byte	0x68
 1315 000b 93        		.byte	0x93
 1316 000c 01        		.uleb128 0x1
 1317 000d 69        		.byte	0x69
 1318 000e 93        		.byte	0x93
 1319 000f 01        		.uleb128 0x1
 1320 0010 0000 0000 		.long	0x0
 1321 0014 0000 0000 		.long	0x0
 1322               	.LLST4:
 1323 0018 4C00 0000 		.long	.LVL5-.Ltext0
 1324 001c 5200 0000 		.long	.LVL6-.Ltext0
 1325 0020 0600      		.word	0x6
 1326 0022 68        		.byte	0x68
 1327 0023 93        		.byte	0x93
 1328 0024 01        		.uleb128 0x1
 1329 0025 69        		.byte	0x69
 1330 0026 93        		.byte	0x93
 1331 0027 01        		.uleb128 0x1
 1332 0028 0000 0000 		.long	0x0
 1333 002c 0000 0000 		.long	0x0
 1334               	.LLST5:
 1335 0030 5800 0000 		.long	.LVL7-.Ltext0
 1336 0034 5E00 0000 		.long	.LVL8-.Ltext0
 1337 0038 0600      		.word	0x6
 1338 003a 68        		.byte	0x68
 1339 003b 93        		.byte	0x93
GAS LISTING C:\Users\jeroe\AppData\Local\Temp/ccgfX1oo.s 			page 25


 1340 003c 01        		.uleb128 0x1
 1341 003d 69        		.byte	0x69
 1342 003e 93        		.byte	0x93
 1343 003f 01        		.uleb128 0x1
 1344 0040 0000 0000 		.long	0x0
 1345 0044 0000 0000 		.long	0x0
 1346               	.LLST6:
 1347 0048 6400 0000 		.long	.LVL9-.Ltext0
 1348 004c 6A00 0000 		.long	.LVL10-.Ltext0
 1349 0050 0600      		.word	0x6
 1350 0052 68        		.byte	0x68
 1351 0053 93        		.byte	0x93
 1352 0054 01        		.uleb128 0x1
 1353 0055 69        		.byte	0x69
 1354 0056 93        		.byte	0x93
 1355 0057 01        		.uleb128 0x1
 1356 0058 0000 0000 		.long	0x0
 1357 005c 0000 0000 		.long	0x0
 1358               	.LLST9:
 1359 0060 9400 0000 		.long	.LVL11-.Ltext0
 1360 0064 A000 0000 		.long	.LVL12-.Ltext0
 1361 0068 0600      		.word	0x6
 1362 006a 68        		.byte	0x68
 1363 006b 93        		.byte	0x93
 1364 006c 01        		.uleb128 0x1
 1365 006d 69        		.byte	0x69
 1366 006e 93        		.byte	0x93
 1367 006f 01        		.uleb128 0x1
 1368 0070 A200 0000 		.long	.LVL13-.Ltext0
 1369 0074 A400 0000 		.long	.LVL14-.Ltext0
 1370 0078 0600      		.word	0x6
 1371 007a 68        		.byte	0x68
 1372 007b 93        		.byte	0x93
 1373 007c 01        		.uleb128 0x1
 1374 007d 69        		.byte	0x69
 1375 007e 93        		.byte	0x93
 1376 007f 01        		.uleb128 0x1
 1377 0080 0000 0000 		.long	0x0
 1378 0084 0000 0000 		.long	0x0
 1379               	.LLST11:
 1380 0088 AA00 0000 		.long	.LVL15-.Ltext0
 1381 008c CC00 0000 		.long	.LVL17-.Ltext0
 1382 0090 0100      		.word	0x1
 1383 0092 68        		.byte	0x68
 1384 0093 0000 0000 		.long	0x0
 1385 0097 0000 0000 		.long	0x0
 1386               	.LLST13:
 1387 009b EC00 0000 		.long	.LVL20-.Ltext0
 1388 009f 0401 0000 		.long	.LVL22-.Ltext0
 1389 00a3 0600      		.word	0x6
 1390 00a5 68        		.byte	0x68
 1391 00a6 93        		.byte	0x93
 1392 00a7 01        		.uleb128 0x1
 1393 00a8 69        		.byte	0x69
 1394 00a9 93        		.byte	0x93
 1395 00aa 01        		.uleb128 0x1
 1396 00ab 0401 0000 		.long	.LVL22-.Ltext0
GAS LISTING C:\Users\jeroe\AppData\Local\Temp/ccgfX1oo.s 			page 26


 1397 00af 2801 0000 		.long	.LVL27-.Ltext0
 1398 00b3 0600      		.word	0x6
 1399 00b5 5E        		.byte	0x5e
 1400 00b6 93        		.byte	0x93
 1401 00b7 01        		.uleb128 0x1
 1402 00b8 5F        		.byte	0x5f
 1403 00b9 93        		.byte	0x93
 1404 00ba 01        		.uleb128 0x1
 1405 00bb 2801 0000 		.long	.LVL27-.Ltext0
 1406 00bf 3201 0000 		.long	.LVL28-.Ltext0
 1407 00c3 0600      		.word	0x6
 1408 00c5 6C        		.byte	0x6c
 1409 00c6 93        		.byte	0x93
 1410 00c7 01        		.uleb128 0x1
 1411 00c8 6D        		.byte	0x6d
 1412 00c9 93        		.byte	0x93
 1413 00ca 01        		.uleb128 0x1
 1414 00cb 3201 0000 		.long	.LVL28-.Ltext0
 1415 00cf 8801 0000 		.long	.LFE14-.Ltext0
 1416 00d3 0600      		.word	0x6
 1417 00d5 5E        		.byte	0x5e
 1418 00d6 93        		.byte	0x93
 1419 00d7 01        		.uleb128 0x1
 1420 00d8 5F        		.byte	0x5f
 1421 00d9 93        		.byte	0x93
 1422 00da 01        		.uleb128 0x1
 1423 00db 0000 0000 		.long	0x0
 1424 00df 0000 0000 		.long	0x0
 1425               	.LLST14:
 1426 00e3 EC00 0000 		.long	.LVL20-.Ltext0
 1427 00e7 0801 0000 		.long	.LVL23-.Ltext0
 1428 00eb 0600      		.word	0x6
 1429 00ed 66        		.byte	0x66
 1430 00ee 93        		.byte	0x93
 1431 00ef 01        		.uleb128 0x1
 1432 00f0 67        		.byte	0x67
 1433 00f1 93        		.byte	0x93
 1434 00f2 01        		.uleb128 0x1
 1435 00f3 0801 0000 		.long	.LVL23-.Ltext0
 1436 00f7 8801 0000 		.long	.LFE14-.Ltext0
 1437 00fb 0600      		.word	0x6
 1438 00fd 5C        		.byte	0x5c
 1439 00fe 93        		.byte	0x93
 1440 00ff 01        		.uleb128 0x1
 1441 0100 5D        		.byte	0x5d
 1442 0101 93        		.byte	0x93
 1443 0102 01        		.uleb128 0x1
 1444 0103 0000 0000 		.long	0x0
 1445 0107 0000 0000 		.long	0x0
 1446               	.LLST15:
 1447 010b FA00 0000 		.long	.LVL21-.Ltext0
 1448 010f 1801 0000 		.long	.LVL26-.Ltext0
 1449 0113 0600      		.word	0x6
 1450 0115 60        		.byte	0x60
 1451 0116 93        		.byte	0x93
 1452 0117 01        		.uleb128 0x1
 1453 0118 61        		.byte	0x61
GAS LISTING C:\Users\jeroe\AppData\Local\Temp/ccgfX1oo.s 			page 27


 1454 0119 93        		.byte	0x93
 1455 011a 01        		.uleb128 0x1
 1456 011b 5C01 0000 		.long	.LVL29-.Ltext0
 1457 011f 8801 0000 		.long	.LFE14-.Ltext0
 1458 0123 0600      		.word	0x6
 1459 0125 60        		.byte	0x60
 1460 0126 93        		.byte	0x93
 1461 0127 01        		.uleb128 0x1
 1462 0128 61        		.byte	0x61
 1463 0129 93        		.byte	0x93
 1464 012a 01        		.uleb128 0x1
 1465 012b 0000 0000 		.long	0x0
 1466 012f 0000 0000 		.long	0x0
 1467               	.LLST16:
 1468 0133 3201 0000 		.long	.LVL28-.Ltext0
 1469 0137 5C01 0000 		.long	.LVL29-.Ltext0
 1470 013b 0600      		.word	0x6
 1471 013d 6C        		.byte	0x6c
 1472 013e 93        		.byte	0x93
 1473 013f 01        		.uleb128 0x1
 1474 0140 6D        		.byte	0x6d
 1475 0141 93        		.byte	0x93
 1476 0142 01        		.uleb128 0x1
 1477 0143 7E01 0000 		.long	.LVL30-.Ltext0
 1478 0147 8801 0000 		.long	.LFE14-.Ltext0
 1479 014b 0600      		.word	0x6
 1480 014d 6C        		.byte	0x6c
 1481 014e 93        		.byte	0x93
 1482 014f 01        		.uleb128 0x1
 1483 0150 6D        		.byte	0x6d
 1484 0151 93        		.byte	0x93
 1485 0152 01        		.uleb128 0x1
 1486 0153 0000 0000 		.long	0x0
 1487 0157 0000 0000 		.long	0x0
 1488               	.LLST17:
 1489 015b 1201 0000 		.long	.LVL24-.Ltext0
 1490 015f 1401 0000 		.long	.LVL25-.Ltext0
 1491 0163 0600      		.word	0x6
 1492 0165 6C        		.byte	0x6c
 1493 0166 93        		.byte	0x93
 1494 0167 01        		.uleb128 0x1
 1495 0168 6D        		.byte	0x6d
 1496 0169 93        		.byte	0x93
 1497 016a 01        		.uleb128 0x1
 1498 016b 5C01 0000 		.long	.LVL29-.Ltext0
 1499 016f 8801 0000 		.long	.LFE14-.Ltext0
 1500 0173 0600      		.word	0x6
 1501 0175 6C        		.byte	0x6c
 1502 0176 93        		.byte	0x93
 1503 0177 01        		.uleb128 0x1
 1504 0178 6D        		.byte	0x6d
 1505 0179 93        		.byte	0x93
 1506 017a 01        		.uleb128 0x1
 1507 017b 0000 0000 		.long	0x0
 1508 017f 0000 0000 		.long	0x0
 1509               	.LLST19:
 1510 0183 9001 0000 		.long	.LVL31-.Ltext0
GAS LISTING C:\Users\jeroe\AppData\Local\Temp/ccgfX1oo.s 			page 28


 1511 0187 9601 0000 		.long	.LVL32-.Ltext0
 1512 018b 0600      		.word	0x6
 1513 018d 68        		.byte	0x68
 1514 018e 93        		.byte	0x93
 1515 018f 01        		.uleb128 0x1
 1516 0190 69        		.byte	0x69
 1517 0191 93        		.byte	0x93
 1518 0192 01        		.uleb128 0x1
 1519 0193 9601 0000 		.long	.LVL32-.Ltext0
 1520 0197 AC01 0000 		.long	.LFE13-.Ltext0
 1521 019b 0600      		.word	0x6
 1522 019d 5E        		.byte	0x5e
 1523 019e 93        		.byte	0x93
 1524 019f 01        		.uleb128 0x1
 1525 01a0 5F        		.byte	0x5f
 1526 01a1 93        		.byte	0x93
 1527 01a2 01        		.uleb128 0x1
 1528 01a3 0000 0000 		.long	0x0
 1529 01a7 0000 0000 		.long	0x0
 1530               	.LLST20:
 1531 01ab 9001 0000 		.long	.LVL31-.Ltext0
 1532 01af 9A01 0000 		.long	.LVL33-.Ltext0
 1533 01b3 0600      		.word	0x6
 1534 01b5 66        		.byte	0x66
 1535 01b6 93        		.byte	0x93
 1536 01b7 01        		.uleb128 0x1
 1537 01b8 67        		.byte	0x67
 1538 01b9 93        		.byte	0x93
 1539 01ba 01        		.uleb128 0x1
 1540 01bb 9A01 0000 		.long	.LVL33-.Ltext0
 1541 01bf AC01 0000 		.long	.LFE13-.Ltext0
 1542 01c3 0600      		.word	0x6
 1543 01c5 60        		.byte	0x60
 1544 01c6 93        		.byte	0x93
 1545 01c7 01        		.uleb128 0x1
 1546 01c8 61        		.byte	0x61
 1547 01c9 93        		.byte	0x93
 1548 01ca 01        		.uleb128 0x1
 1549 01cb 0000 0000 		.long	0x0
 1550 01cf 0000 0000 		.long	0x0
 1551               	.LLST22:
 1552 01d3 AC01 0000 		.long	.LVL34-.Ltext0
 1553 01d7 B601 0000 		.long	.LVL35-.Ltext0
 1554 01db 0600      		.word	0x6
 1555 01dd 68        		.byte	0x68
 1556 01de 93        		.byte	0x93
 1557 01df 01        		.uleb128 0x1
 1558 01e0 69        		.byte	0x69
 1559 01e1 93        		.byte	0x93
 1560 01e2 01        		.uleb128 0x1
 1561 01e3 B801 0000 		.long	.LVL36-.Ltext0
 1562 01e7 BC01 0000 		.long	.LVL37-.Ltext0
 1563 01eb 0600      		.word	0x6
 1564 01ed 68        		.byte	0x68
 1565 01ee 93        		.byte	0x93
 1566 01ef 01        		.uleb128 0x1
 1567 01f0 69        		.byte	0x69
GAS LISTING C:\Users\jeroe\AppData\Local\Temp/ccgfX1oo.s 			page 29


 1568 01f1 93        		.byte	0x93
 1569 01f2 01        		.uleb128 0x1
 1570 01f3 0000 0000 		.long	0x0
 1571 01f7 0000 0000 		.long	0x0
 1572               	.LLST23:
 1573 01fb AC01 0000 		.long	.LVL34-.Ltext0
 1574 01ff B601 0000 		.long	.LVL35-.Ltext0
 1575 0203 0600      		.word	0x6
 1576 0205 66        		.byte	0x66
 1577 0206 93        		.byte	0x93
 1578 0207 01        		.uleb128 0x1
 1579 0208 67        		.byte	0x67
 1580 0209 93        		.byte	0x93
 1581 020a 01        		.uleb128 0x1
 1582 020b B801 0000 		.long	.LVL36-.Ltext0
 1583 020f BC01 0000 		.long	.LVL37-.Ltext0
 1584 0213 0600      		.word	0x6
 1585 0215 66        		.byte	0x66
 1586 0216 93        		.byte	0x93
 1587 0217 01        		.uleb128 0x1
 1588 0218 67        		.byte	0x67
 1589 0219 93        		.byte	0x93
 1590 021a 01        		.uleb128 0x1
 1591 021b 0000 0000 		.long	0x0
 1592 021f 0000 0000 		.long	0x0
 1593               	.LLST24:
 1594 0223 AC01 0000 		.long	.LVL34-.Ltext0
 1595 0227 B601 0000 		.long	.LVL35-.Ltext0
 1596 022b 0600      		.word	0x6
 1597 022d 64        		.byte	0x64
 1598 022e 93        		.byte	0x93
 1599 022f 01        		.uleb128 0x1
 1600 0230 65        		.byte	0x65
 1601 0231 93        		.byte	0x93
 1602 0232 01        		.uleb128 0x1
 1603 0233 B801 0000 		.long	.LVL36-.Ltext0
 1604 0237 BC01 0000 		.long	.LVL37-.Ltext0
 1605 023b 0600      		.word	0x6
 1606 023d 64        		.byte	0x64
 1607 023e 93        		.byte	0x93
 1608 023f 01        		.uleb128 0x1
 1609 0240 65        		.byte	0x65
 1610 0241 93        		.byte	0x93
 1611 0242 01        		.uleb128 0x1
 1612 0243 0000 0000 		.long	0x0
 1613 0247 0000 0000 		.long	0x0
 1614               	.LLST26:
 1615 024b BE01 0000 		.long	.LVL38-.Ltext0
 1616 024f CA01 0000 		.long	.LVL40-.Ltext0
 1617 0253 0600      		.word	0x6
 1618 0255 68        		.byte	0x68
 1619 0256 93        		.byte	0x93
 1620 0257 01        		.uleb128 0x1
 1621 0258 69        		.byte	0x69
 1622 0259 93        		.byte	0x93
 1623 025a 01        		.uleb128 0x1
 1624 025b CA01 0000 		.long	.LVL40-.Ltext0
GAS LISTING C:\Users\jeroe\AppData\Local\Temp/ccgfX1oo.s 			page 30


 1625 025f DC01 0000 		.long	.LFE6-.Ltext0
 1626 0263 0600      		.word	0x6
 1627 0265 64        		.byte	0x64
 1628 0266 93        		.byte	0x93
 1629 0267 01        		.uleb128 0x1
 1630 0268 65        		.byte	0x65
 1631 0269 93        		.byte	0x93
 1632 026a 01        		.uleb128 0x1
 1633 026b 0000 0000 		.long	0x0
 1634 026f 0000 0000 		.long	0x0
 1635               	.LLST28:
 1636 0273 F201 0000 		.long	.LVL42-.Ltext0
 1637 0277 FA01 0000 		.long	.LVL43-.Ltext0
 1638 027b 0600      		.word	0x6
 1639 027d 68        		.byte	0x68
 1640 027e 93        		.byte	0x93
 1641 027f 01        		.uleb128 0x1
 1642 0280 69        		.byte	0x69
 1643 0281 93        		.byte	0x93
 1644 0282 01        		.uleb128 0x1
 1645 0283 0000 0000 		.long	0x0
 1646 0287 0000 0000 		.long	0x0
 1647               	.LLST29:
 1648 028b FE01 0000 		.long	.LVL44-.Ltext0
 1649 028f 0C02 0000 		.long	.LVL45-.Ltext0
 1650 0293 0600      		.word	0x6
 1651 0295 68        		.byte	0x68
 1652 0296 93        		.byte	0x93
 1653 0297 01        		.uleb128 0x1
 1654 0298 69        		.byte	0x69
 1655 0299 93        		.byte	0x93
 1656 029a 01        		.uleb128 0x1
 1657 029b 0000 0000 		.long	0x0
 1658 029f 0000 0000 		.long	0x0
 1659               		.section	.debug_info
 1660 0000 EE06 0000 		.long	0x6ee
 1661 0004 0200      		.word	0x2
 1662 0006 0000 0000 		.long	.Ldebug_abbrev0
 1663 000a 04        		.byte	0x4
 1664 000b 01        		.uleb128 0x1
 1665 000c 0000 0000 		.long	.Ldebug_line0
 1666 0010 0000 0000 		.long	.Letext0
 1667 0014 0000 0000 		.long	.Ltext0
 1668 0018 0000 0000 		.long	.LASF28
 1669 001c 01        		.byte	0x1
 1670 001d 0000 0000 		.long	.LASF29
 1671 0021 0000 0000 		.long	.LASF30
 1672 0025 02        		.uleb128 0x2
 1673 0026 0000 0000 		.long	.LASF0
 1674 002a 01        		.byte	0x1
 1675 002b 06        		.byte	0x6
 1676 002c 02        		.uleb128 0x2
 1677 002d 0000 0000 		.long	.LASF1
 1678 0031 01        		.byte	0x1
 1679 0032 08        		.byte	0x8
 1680 0033 03        		.uleb128 0x3
 1681 0034 696E 7400 		.string	"int"
GAS LISTING C:\Users\jeroe\AppData\Local\Temp/ccgfX1oo.s 			page 31


 1682 0038 02        		.byte	0x2
 1683 0039 05        		.byte	0x5
 1684 003a 04        		.uleb128 0x4
 1685 003b 0000 0000 		.long	.LASF31
 1686 003f 01        		.byte	0x1
 1687 0040 7C        		.byte	0x7c
 1688 0041 4500 0000 		.long	0x45
 1689 0045 02        		.uleb128 0x2
 1690 0046 0000 0000 		.long	.LASF2
 1691 004a 02        		.byte	0x2
 1692 004b 07        		.byte	0x7
 1693 004c 02        		.uleb128 0x2
 1694 004d 0000 0000 		.long	.LASF3
 1695 0051 04        		.byte	0x4
 1696 0052 05        		.byte	0x5
 1697 0053 02        		.uleb128 0x2
 1698 0054 0000 0000 		.long	.LASF4
 1699 0058 04        		.byte	0x4
 1700 0059 07        		.byte	0x7
 1701 005a 02        		.uleb128 0x2
 1702 005b 0000 0000 		.long	.LASF5
 1703 005f 08        		.byte	0x8
 1704 0060 05        		.byte	0x5
 1705 0061 02        		.uleb128 0x2
 1706 0062 0000 0000 		.long	.LASF6
 1707 0066 08        		.byte	0x8
 1708 0067 07        		.byte	0x7
 1709 0068 05        		.uleb128 0x5
 1710 0069 8100 0000 		.long	0x81
 1711 006d 0000 0000 		.long	.LASF7
 1712 0071 04        		.byte	0x4
 1713 0072 68        		.byte	0x68
 1714 0073 01        		.byte	0x1
 1715 0074 03        		.byte	0x3
 1716 0075 06        		.uleb128 0x6
 1717 0076 0000 0000 		.long	.LASF9
 1718 007a 04        		.byte	0x4
 1719 007b 67        		.byte	0x67
 1720 007c 3A00 0000 		.long	0x3a
 1721 0080 00        		.byte	0x0
 1722 0081 05        		.uleb128 0x5
 1723 0082 B100 0000 		.long	0xb1
 1724 0086 0000 0000 		.long	.LASF8
 1725 008a 05        		.byte	0x5
 1726 008b 81        		.byte	0x81
 1727 008c 01        		.byte	0x1
 1728 008d 03        		.byte	0x3
 1729 008e 06        		.uleb128 0x6
 1730 008f 0000 0000 		.long	.LASF10
 1731 0093 05        		.byte	0x5
 1732 0094 80        		.byte	0x80
 1733 0095 B100 0000 		.long	0xb1
 1734 0099 07        		.uleb128 0x7
 1735 009a 0000 0000 		.long	.LASF11
 1736 009e 05        		.byte	0x5
 1737 009f 82        		.byte	0x82
 1738 00a0 3A00 0000 		.long	0x3a
GAS LISTING C:\Users\jeroe\AppData\Local\Temp/ccgfX1oo.s 			page 32


 1739 00a4 07        		.uleb128 0x7
 1740 00a5 0000 0000 		.long	.LASF12
 1741 00a9 05        		.byte	0x5
 1742 00aa 83        		.byte	0x83
 1743 00ab B100 0000 		.long	0xb1
 1744 00af 08        		.uleb128 0x8
 1745 00b0 00        		.byte	0x0
 1746 00b1 02        		.uleb128 0x2
 1747 00b2 0000 0000 		.long	.LASF13
 1748 00b6 04        		.byte	0x4
 1749 00b7 04        		.byte	0x4
 1750 00b8 09        		.uleb128 0x9
 1751 00b9 6C01 0000 		.long	0x16c
 1752 00bd 01        		.byte	0x1
 1753 00be 0000 0000 		.long	.LASF14
 1754 00c2 06        		.byte	0x6
 1755 00c3 0E        		.byte	0xe
 1756 00c4 01        		.byte	0x1
 1757 00c5 0000 0000 		.long	.LFB7
 1758 00c9 0000 0000 		.long	.LFE7
 1759 00cd 02        		.byte	0x2
 1760 00ce 90        		.byte	0x90
 1761 00cf 20        		.uleb128 0x20
 1762 00d0 0A        		.uleb128 0xa
 1763 00d1 6461 7400 		.string	"dat"
 1764 00d5 06        		.byte	0x6
 1765 00d6 0D        		.byte	0xd
 1766 00d7 2C00 0000 		.long	0x2c
 1767 00db 01        		.byte	0x1
 1768 00dc 68        		.byte	0x68
 1769 00dd 0B        		.uleb128 0xb
 1770 00de 2601 0000 		.long	0x126
 1771 00e2 8100 0000 		.long	0x81
 1772 00e6 0000 0000 		.long	.LBB48
 1773 00ea 0000 0000 		.long	.LBE48
 1774 00ee 06        		.byte	0x6
 1775 00ef 12        		.byte	0x12
 1776 00f0 0C        		.uleb128 0xc
 1777 00f1 8E00 0000 		.long	0x8e
 1778 00f5 0D        		.uleb128 0xd
 1779 00f6 0000 0000 		.long	.LBB49
 1780 00fa 0000 0000 		.long	.LBE49
 1781 00fe 0E        		.uleb128 0xe
 1782 00ff 9900 0000 		.long	0x99
 1783 0103 0E        		.uleb128 0xe
 1784 0104 A400 0000 		.long	0xa4
 1785 0108 0F        		.uleb128 0xf
 1786 0109 6800 0000 		.long	0x68
 1787 010d 0000 0000 		.long	.LBB50
 1788 0111 0000 0000 		.long	.LBE50
 1789 0115 05        		.byte	0x5
 1790 0116 8A        		.byte	0x8a
 1791 0117 10        		.uleb128 0x10
 1792 0118 7500 0000 		.long	0x75
 1793 011c 06        		.byte	0x6
 1794 011d 6A        		.byte	0x6a
 1795 011e 93        		.byte	0x93
GAS LISTING C:\Users\jeroe\AppData\Local\Temp/ccgfX1oo.s 			page 33


 1796 011f 01        		.uleb128 0x1
 1797 0120 6B        		.byte	0x6b
 1798 0121 93        		.byte	0x93
 1799 0122 01        		.uleb128 0x1
 1800 0123 00        		.byte	0x0
 1801 0124 00        		.byte	0x0
 1802 0125 00        		.byte	0x0
 1803 0126 0F        		.uleb128 0xf
 1804 0127 8100 0000 		.long	0x81
 1805 012b 0000 0000 		.long	.LBB52
 1806 012f 0000 0000 		.long	.LBE52
 1807 0133 06        		.byte	0x6
 1808 0134 18        		.byte	0x18
 1809 0135 0C        		.uleb128 0xc
 1810 0136 8E00 0000 		.long	0x8e
 1811 013a 0D        		.uleb128 0xd
 1812 013b 0000 0000 		.long	.LBB53
 1813 013f 0000 0000 		.long	.LBE53
 1814 0143 0E        		.uleb128 0xe
 1815 0144 9900 0000 		.long	0x99
 1816 0148 0E        		.uleb128 0xe
 1817 0149 A400 0000 		.long	0xa4
 1818 014d 0F        		.uleb128 0xf
 1819 014e 6800 0000 		.long	0x68
 1820 0152 0000 0000 		.long	.LBB54
 1821 0156 0000 0000 		.long	.LBE54
 1822 015a 05        		.byte	0x5
 1823 015b 8A        		.byte	0x8a
 1824 015c 10        		.uleb128 0x10
 1825 015d 7500 0000 		.long	0x75
 1826 0161 06        		.byte	0x6
 1827 0162 6E        		.byte	0x6e
 1828 0163 93        		.byte	0x93
 1829 0164 01        		.uleb128 0x1
 1830 0165 6F        		.byte	0x6f
 1831 0166 93        		.byte	0x93
 1832 0167 01        		.uleb128 0x1
 1833 0168 00        		.byte	0x0
 1834 0169 00        		.byte	0x0
 1835 016a 00        		.byte	0x0
 1836 016b 00        		.byte	0x0
 1837 016c 11        		.uleb128 0x11
 1838 016d 01        		.byte	0x1
 1839 016e 0000 0000 		.long	.LASF16
 1840 0172 06        		.byte	0x6
 1841 0173 1D        		.byte	0x1d
 1842 0174 0000 0000 		.long	.LFB8
 1843 0178 0000 0000 		.long	.LFE8
 1844 017c 02        		.byte	0x2
 1845 017d 90        		.byte	0x90
 1846 017e 20        		.uleb128 0x20
 1847 017f 09        		.uleb128 0x9
 1848 0180 3E03 0000 		.long	0x33e
 1849 0184 01        		.byte	0x1
 1850 0185 0000 0000 		.long	.LASF15
 1851 0189 06        		.byte	0x6
 1852 018a 2B        		.byte	0x2b
GAS LISTING C:\Users\jeroe\AppData\Local\Temp/ccgfX1oo.s 			page 34


 1853 018b 01        		.byte	0x1
 1854 018c 0000 0000 		.long	.LFB10
 1855 0190 0000 0000 		.long	.LFE10
 1856 0194 02        		.byte	0x2
 1857 0195 90        		.byte	0x90
 1858 0196 20        		.uleb128 0x20
 1859 0197 0B        		.uleb128 0xb
 1860 0198 DD01 0000 		.long	0x1dd
 1861 019c 8100 0000 		.long	0x81
 1862 01a0 0000 0000 		.long	.LBB56
 1863 01a4 0000 0000 		.long	.LBE56
 1864 01a8 06        		.byte	0x6
 1865 01a9 2C        		.byte	0x2c
 1866 01aa 0C        		.uleb128 0xc
 1867 01ab 8E00 0000 		.long	0x8e
 1868 01af 0D        		.uleb128 0xd
 1869 01b0 0000 0000 		.long	.LBB57
 1870 01b4 0000 0000 		.long	.LBE57
 1871 01b8 0E        		.uleb128 0xe
 1872 01b9 9900 0000 		.long	0x99
 1873 01bd 0E        		.uleb128 0xe
 1874 01be A400 0000 		.long	0xa4
 1875 01c2 0F        		.uleb128 0xf
 1876 01c3 6800 0000 		.long	0x68
 1877 01c7 0000 0000 		.long	.LBB58
 1878 01cb 0000 0000 		.long	.LBE58
 1879 01cf 05        		.byte	0x5
 1880 01d0 8A        		.byte	0x8a
 1881 01d1 12        		.uleb128 0x12
 1882 01d2 7500 0000 		.long	0x75
 1883 01d6 0000 0000 		.long	.LLST3
 1884 01da 00        		.byte	0x0
 1885 01db 00        		.byte	0x0
 1886 01dc 00        		.byte	0x0
 1887 01dd 0B        		.uleb128 0xb
 1888 01de 2302 0000 		.long	0x223
 1889 01e2 8100 0000 		.long	0x81
 1890 01e6 0000 0000 		.long	.LBB60
 1891 01ea 0000 0000 		.long	.LBE60
 1892 01ee 06        		.byte	0x6
 1893 01ef 2E        		.byte	0x2e
 1894 01f0 0C        		.uleb128 0xc
 1895 01f1 8E00 0000 		.long	0x8e
 1896 01f5 0D        		.uleb128 0xd
 1897 01f6 0000 0000 		.long	.LBB61
 1898 01fa 0000 0000 		.long	.LBE61
 1899 01fe 0E        		.uleb128 0xe
 1900 01ff 9900 0000 		.long	0x99
 1901 0203 0E        		.uleb128 0xe
 1902 0204 A400 0000 		.long	0xa4
 1903 0208 0F        		.uleb128 0xf
 1904 0209 6800 0000 		.long	0x68
 1905 020d 0000 0000 		.long	.LBB62
 1906 0211 0000 0000 		.long	.LBE62
 1907 0215 05        		.byte	0x5
 1908 0216 8A        		.byte	0x8a
 1909 0217 12        		.uleb128 0x12
GAS LISTING C:\Users\jeroe\AppData\Local\Temp/ccgfX1oo.s 			page 35


 1910 0218 7500 0000 		.long	0x75
 1911 021c 0000 0000 		.long	.LLST4
 1912 0220 00        		.byte	0x0
 1913 0221 00        		.byte	0x0
 1914 0222 00        		.byte	0x0
 1915 0223 0B        		.uleb128 0xb
 1916 0224 6902 0000 		.long	0x269
 1917 0228 8100 0000 		.long	0x81
 1918 022c 0000 0000 		.long	.LBB64
 1919 0230 0000 0000 		.long	.LBE64
 1920 0234 06        		.byte	0x6
 1921 0235 30        		.byte	0x30
 1922 0236 0C        		.uleb128 0xc
 1923 0237 8E00 0000 		.long	0x8e
 1924 023b 0D        		.uleb128 0xd
 1925 023c 0000 0000 		.long	.LBB65
 1926 0240 0000 0000 		.long	.LBE65
 1927 0244 0E        		.uleb128 0xe
 1928 0245 9900 0000 		.long	0x99
 1929 0249 0E        		.uleb128 0xe
 1930 024a A400 0000 		.long	0xa4
 1931 024e 0F        		.uleb128 0xf
 1932 024f 6800 0000 		.long	0x68
 1933 0253 0000 0000 		.long	.LBB66
 1934 0257 0000 0000 		.long	.LBE66
 1935 025b 05        		.byte	0x5
 1936 025c 8A        		.byte	0x8a
 1937 025d 12        		.uleb128 0x12
 1938 025e 7500 0000 		.long	0x75
 1939 0262 0000 0000 		.long	.LLST5
 1940 0266 00        		.byte	0x0
 1941 0267 00        		.byte	0x0
 1942 0268 00        		.byte	0x0
 1943 0269 0B        		.uleb128 0xb
 1944 026a AF02 0000 		.long	0x2af
 1945 026e 8100 0000 		.long	0x81
 1946 0272 0000 0000 		.long	.LBB68
 1947 0276 0000 0000 		.long	.LBE68
 1948 027a 06        		.byte	0x6
 1949 027b 32        		.byte	0x32
 1950 027c 0C        		.uleb128 0xc
 1951 027d 8E00 0000 		.long	0x8e
 1952 0281 0D        		.uleb128 0xd
 1953 0282 0000 0000 		.long	.LBB69
 1954 0286 0000 0000 		.long	.LBE69
 1955 028a 0E        		.uleb128 0xe
 1956 028b 9900 0000 		.long	0x99
 1957 028f 0E        		.uleb128 0xe
 1958 0290 A400 0000 		.long	0xa4
 1959 0294 0F        		.uleb128 0xf
 1960 0295 6800 0000 		.long	0x68
 1961 0299 0000 0000 		.long	.LBB70
 1962 029d 0000 0000 		.long	.LBE70
 1963 02a1 05        		.byte	0x5
 1964 02a2 8A        		.byte	0x8a
 1965 02a3 12        		.uleb128 0x12
 1966 02a4 7500 0000 		.long	0x75
GAS LISTING C:\Users\jeroe\AppData\Local\Temp/ccgfX1oo.s 			page 36


 1967 02a8 0000 0000 		.long	.LLST6
 1968 02ac 00        		.byte	0x0
 1969 02ad 00        		.byte	0x0
 1970 02ae 00        		.byte	0x0
 1971 02af 0B        		.uleb128 0xb
 1972 02b0 F802 0000 		.long	0x2f8
 1973 02b4 8100 0000 		.long	0x81
 1974 02b8 0000 0000 		.long	.LBB72
 1975 02bc 0000 0000 		.long	.LBE72
 1976 02c0 06        		.byte	0x6
 1977 02c1 34        		.byte	0x34
 1978 02c2 0C        		.uleb128 0xc
 1979 02c3 8E00 0000 		.long	0x8e
 1980 02c7 0D        		.uleb128 0xd
 1981 02c8 0000 0000 		.long	.LBB73
 1982 02cc 0000 0000 		.long	.LBE73
 1983 02d0 0E        		.uleb128 0xe
 1984 02d1 9900 0000 		.long	0x99
 1985 02d5 0E        		.uleb128 0xe
 1986 02d6 A400 0000 		.long	0xa4
 1987 02da 0F        		.uleb128 0xf
 1988 02db 6800 0000 		.long	0x68
 1989 02df 0000 0000 		.long	.LBB74
 1990 02e3 0000 0000 		.long	.LBE74
 1991 02e7 05        		.byte	0x5
 1992 02e8 8A        		.byte	0x8a
 1993 02e9 10        		.uleb128 0x10
 1994 02ea 7500 0000 		.long	0x75
 1995 02ee 06        		.byte	0x6
 1996 02ef 60        		.byte	0x60
 1997 02f0 93        		.byte	0x93
 1998 02f1 01        		.uleb128 0x1
 1999 02f2 61        		.byte	0x61
 2000 02f3 93        		.byte	0x93
 2001 02f4 01        		.uleb128 0x1
 2002 02f5 00        		.byte	0x0
 2003 02f6 00        		.byte	0x0
 2004 02f7 00        		.byte	0x0
 2005 02f8 0F        		.uleb128 0xf
 2006 02f9 8100 0000 		.long	0x81
 2007 02fd 0000 0000 		.long	.LBB76
 2008 0301 0000 0000 		.long	.LBE76
 2009 0305 06        		.byte	0x6
 2010 0306 36        		.byte	0x36
 2011 0307 0C        		.uleb128 0xc
 2012 0308 8E00 0000 		.long	0x8e
 2013 030c 0D        		.uleb128 0xd
 2014 030d 0000 0000 		.long	.LBB77
 2015 0311 0000 0000 		.long	.LBE77
 2016 0315 0E        		.uleb128 0xe
 2017 0316 9900 0000 		.long	0x99
 2018 031a 0E        		.uleb128 0xe
 2019 031b A400 0000 		.long	0xa4
 2020 031f 0F        		.uleb128 0xf
 2021 0320 6800 0000 		.long	0x68
 2022 0324 0000 0000 		.long	.LBB78
 2023 0328 0000 0000 		.long	.LBE78
GAS LISTING C:\Users\jeroe\AppData\Local\Temp/ccgfX1oo.s 			page 37


 2024 032c 05        		.byte	0x5
 2025 032d 8A        		.byte	0x8a
 2026 032e 10        		.uleb128 0x10
 2027 032f 7500 0000 		.long	0x75
 2028 0333 06        		.byte	0x6
 2029 0334 5E        		.byte	0x5e
 2030 0335 93        		.byte	0x93
 2031 0336 01        		.uleb128 0x1
 2032 0337 5F        		.byte	0x5f
 2033 0338 93        		.byte	0x93
 2034 0339 01        		.uleb128 0x1
 2035 033a 00        		.byte	0x0
 2036 033b 00        		.byte	0x0
 2037 033c 00        		.byte	0x0
 2038 033d 00        		.byte	0x0
 2039 033e 13        		.uleb128 0x13
 2040 033f 01        		.byte	0x1
 2041 0340 0000 0000 		.long	.LASF17
 2042 0344 06        		.byte	0x6
 2043 0345 3A        		.byte	0x3a
 2044 0346 01        		.byte	0x1
 2045 0347 0000 0000 		.long	.LFB11
 2046 034b 0000 0000 		.long	.LFE11
 2047 034f 02        		.byte	0x2
 2048 0350 90        		.byte	0x90
 2049 0351 20        		.uleb128 0x20
 2050 0352 09        		.uleb128 0x9
 2051 0353 7A03 0000 		.long	0x37a
 2052 0357 01        		.byte	0x1
 2053 0358 0000 0000 		.long	.LASF18
 2054 035c 06        		.byte	0x6
 2055 035d 6A        		.byte	0x6a
 2056 035e 01        		.byte	0x1
 2057 035f 0000 0000 		.long	.LFB15
 2058 0363 0000 0000 		.long	.LFE15
 2059 0367 02        		.byte	0x2
 2060 0368 90        		.byte	0x90
 2061 0369 20        		.uleb128 0x20
 2062 036a 14        		.uleb128 0x14
 2063 036b 726F 7700 		.string	"row"
 2064 036f 06        		.byte	0x6
 2065 0370 6A        		.byte	0x6a
 2066 0371 3300 0000 		.long	0x33
 2067 0375 0000 0000 		.long	.LLST9
 2068 0379 00        		.byte	0x0
 2069 037a 09        		.uleb128 0x9
 2070 037b 7904 0000 		.long	0x479
 2071 037f 01        		.byte	0x1
 2072 0380 0000 0000 		.long	.LASF19
 2073 0384 06        		.byte	0x6
 2074 0385 7B        		.byte	0x7b
 2075 0386 01        		.byte	0x1
 2076 0387 0000 0000 		.long	.LFB16
 2077 038b 0000 0000 		.long	.LFE16
 2078 038f 02        		.byte	0x2
 2079 0390 90        		.byte	0x90
 2080 0391 20        		.uleb128 0x20
GAS LISTING C:\Users\jeroe\AppData\Local\Temp/ccgfX1oo.s 			page 38


 2081 0392 14        		.uleb128 0x14
 2082 0393 6461 7400 		.string	"dat"
 2083 0397 06        		.byte	0x6
 2084 0398 7A        		.byte	0x7a
 2085 0399 2C00 0000 		.long	0x2c
 2086 039d 0000 0000 		.long	.LLST11
 2087 03a1 0B        		.uleb128 0xb
 2088 03a2 EA03 0000 		.long	0x3ea
 2089 03a6 8100 0000 		.long	0x81
 2090 03aa 0000 0000 		.long	.LBB80
 2091 03ae 0000 0000 		.long	.LBE80
 2092 03b2 06        		.byte	0x6
 2093 03b3 7F        		.byte	0x7f
 2094 03b4 0C        		.uleb128 0xc
 2095 03b5 8E00 0000 		.long	0x8e
 2096 03b9 0D        		.uleb128 0xd
 2097 03ba 0000 0000 		.long	.LBB81
 2098 03be 0000 0000 		.long	.LBE81
 2099 03c2 0E        		.uleb128 0xe
 2100 03c3 9900 0000 		.long	0x99
 2101 03c7 0E        		.uleb128 0xe
 2102 03c8 A400 0000 		.long	0xa4
 2103 03cc 0F        		.uleb128 0xf
 2104 03cd 6800 0000 		.long	0x68
 2105 03d1 0000 0000 		.long	.LBB82
 2106 03d5 0000 0000 		.long	.LBE82
 2107 03d9 05        		.byte	0x5
 2108 03da 8A        		.byte	0x8a
 2109 03db 10        		.uleb128 0x10
 2110 03dc 7500 0000 		.long	0x75
 2111 03e0 06        		.byte	0x6
 2112 03e1 6A        		.byte	0x6a
 2113 03e2 93        		.byte	0x93
 2114 03e3 01        		.uleb128 0x1
 2115 03e4 6B        		.byte	0x6b
 2116 03e5 93        		.byte	0x93
 2117 03e6 01        		.uleb128 0x1
 2118 03e7 00        		.byte	0x0
 2119 03e8 00        		.byte	0x0
 2120 03e9 00        		.byte	0x0
 2121 03ea 0B        		.uleb128 0xb
 2122 03eb 3304 0000 		.long	0x433
 2123 03ef 8100 0000 		.long	0x81
 2124 03f3 0000 0000 		.long	.LBB84
 2125 03f7 0000 0000 		.long	.LBE84
 2126 03fb 06        		.byte	0x6
 2127 03fc 85        		.byte	0x85
 2128 03fd 0C        		.uleb128 0xc
 2129 03fe 8E00 0000 		.long	0x8e
 2130 0402 0D        		.uleb128 0xd
 2131 0403 0000 0000 		.long	.LBB85
 2132 0407 0000 0000 		.long	.LBE85
 2133 040b 0E        		.uleb128 0xe
 2134 040c 9900 0000 		.long	0x99
 2135 0410 0E        		.uleb128 0xe
 2136 0411 A400 0000 		.long	0xa4
 2137 0415 0F        		.uleb128 0xf
GAS LISTING C:\Users\jeroe\AppData\Local\Temp/ccgfX1oo.s 			page 39


 2138 0416 6800 0000 		.long	0x68
 2139 041a 0000 0000 		.long	.LBB86
 2140 041e 0000 0000 		.long	.LBE86
 2141 0422 05        		.byte	0x5
 2142 0423 8A        		.byte	0x8a
 2143 0424 10        		.uleb128 0x10
 2144 0425 7500 0000 		.long	0x75
 2145 0429 06        		.byte	0x6
 2146 042a 6E        		.byte	0x6e
 2147 042b 93        		.byte	0x93
 2148 042c 01        		.uleb128 0x1
 2149 042d 6F        		.byte	0x6f
 2150 042e 93        		.byte	0x93
 2151 042f 01        		.uleb128 0x1
 2152 0430 00        		.byte	0x0
 2153 0431 00        		.byte	0x0
 2154 0432 00        		.byte	0x0
 2155 0433 0F        		.uleb128 0xf
 2156 0434 8100 0000 		.long	0x81
 2157 0438 0000 0000 		.long	.LBB88
 2158 043c 0000 0000 		.long	.LBE88
 2159 0440 06        		.byte	0x6
 2160 0441 87        		.byte	0x87
 2161 0442 0C        		.uleb128 0xc
 2162 0443 8E00 0000 		.long	0x8e
 2163 0447 0D        		.uleb128 0xd
 2164 0448 0000 0000 		.long	.LBB89
 2165 044c 0000 0000 		.long	.LBE89
 2166 0450 0E        		.uleb128 0xe
 2167 0451 9900 0000 		.long	0x99
 2168 0455 0E        		.uleb128 0xe
 2169 0456 A400 0000 		.long	0xa4
 2170 045a 0F        		.uleb128 0xf
 2171 045b 6800 0000 		.long	0x68
 2172 045f 0000 0000 		.long	.LBB90
 2173 0463 0000 0000 		.long	.LBE90
 2174 0467 05        		.byte	0x5
 2175 0468 8A        		.byte	0x8a
 2176 0469 10        		.uleb128 0x10
 2177 046a 7500 0000 		.long	0x75
 2178 046e 06        		.byte	0x6
 2179 046f 68        		.byte	0x68
 2180 0470 93        		.byte	0x93
 2181 0471 01        		.uleb128 0x1
 2182 0472 69        		.byte	0x69
 2183 0473 93        		.byte	0x93
 2184 0474 01        		.uleb128 0x1
 2185 0475 00        		.byte	0x0
 2186 0476 00        		.byte	0x0
 2187 0477 00        		.byte	0x0
 2188 0478 00        		.byte	0x0
 2189 0479 09        		.uleb128 0x9
 2190 047a 1B05 0000 		.long	0x51b
 2191 047e 01        		.byte	0x1
 2192 047f 0000 0000 		.long	.LASF20
 2193 0483 06        		.byte	0x6
 2194 0484 50        		.byte	0x50
GAS LISTING C:\Users\jeroe\AppData\Local\Temp/ccgfX1oo.s 			page 40


 2195 0485 01        		.byte	0x1
 2196 0486 0000 0000 		.long	.LFB14
 2197 048a 0000 0000 		.long	.LFE14
 2198 048e 02        		.byte	0x2
 2199 048f 90        		.byte	0x90
 2200 0490 20        		.uleb128 0x20
 2201 0491 14        		.uleb128 0x14
 2202 0492 7374 7200 		.string	"str"
 2203 0496 06        		.byte	0x6
 2204 0497 50        		.byte	0x50
 2205 0498 1B05 0000 		.long	0x51b
 2206 049c 0000 0000 		.long	.LLST13
 2207 04a0 14        		.uleb128 0x14
 2208 04a1 726F 7700 		.string	"row"
 2209 04a5 06        		.byte	0x6
 2210 04a6 50        		.byte	0x50
 2211 04a7 3300 0000 		.long	0x33
 2212 04ab 0000 0000 		.long	.LLST14
 2213 04af 15        		.uleb128 0x15
 2214 04b0 0000 0000 		.long	.LASF21
 2215 04b4 06        		.byte	0x6
 2216 04b5 51        		.byte	0x51
 2217 04b6 3300 0000 		.long	0x33
 2218 04ba 0000 0000 		.long	.LLST15
 2219 04be 16        		.uleb128 0x16
 2220 04bf D504 0000 		.long	0x4d5
 2221 04c3 0000 0000 		.long	.LBB92
 2222 04c7 0000 0000 		.long	.LBE92
 2223 04cb 17        		.uleb128 0x17
 2224 04cc 6900      		.string	"i"
 2225 04ce 06        		.byte	0x6
 2226 04cf 56        		.byte	0x56
 2227 04d0 3300 0000 		.long	0x33
 2228 04d4 00        		.byte	0x0
 2229 04d5 16        		.uleb128 0x16
 2230 04d6 F004 0000 		.long	0x4f0
 2231 04da 0000 0000 		.long	.LBB93
 2232 04de 0000 0000 		.long	.LBE93
 2233 04e2 18        		.uleb128 0x18
 2234 04e3 6900      		.string	"i"
 2235 04e5 06        		.byte	0x6
 2236 04e6 5C        		.byte	0x5c
 2237 04e7 3300 0000 		.long	0x33
 2238 04eb 0000 0000 		.long	.LLST16
 2239 04ef 00        		.byte	0x0
 2240 04f0 0D        		.uleb128 0xd
 2241 04f1 0000 0000 		.long	.LBB94
 2242 04f5 0000 0000 		.long	.LBE94
 2243 04f9 17        		.uleb128 0x17
 2244 04fa 6300      		.string	"c"
 2245 04fc 06        		.byte	0x6
 2246 04fd 63        		.byte	0x63
 2247 04fe 2105 0000 		.long	0x521
 2248 0502 0D        		.uleb128 0xd
 2249 0503 0000 0000 		.long	.LBB95
 2250 0507 0000 0000 		.long	.LBE95
 2251 050b 18        		.uleb128 0x18
GAS LISTING C:\Users\jeroe\AppData\Local\Temp/ccgfX1oo.s 			page 41


 2252 050c 6900      		.string	"i"
 2253 050e 06        		.byte	0x6
 2254 050f 64        		.byte	0x64
 2255 0510 3300 0000 		.long	0x33
 2256 0514 0000 0000 		.long	.LLST17
 2257 0518 00        		.byte	0x0
 2258 0519 00        		.byte	0x0
 2259 051a 00        		.byte	0x0
 2260 051b 19        		.uleb128 0x19
 2261 051c 02        		.byte	0x2
 2262 051d 2105 0000 		.long	0x521
 2263 0521 02        		.uleb128 0x2
 2264 0522 0000 0000 		.long	.LASF22
 2265 0526 01        		.byte	0x1
 2266 0527 06        		.byte	0x6
 2267 0528 09        		.uleb128 0x9
 2268 0529 5F05 0000 		.long	0x55f
 2269 052d 01        		.byte	0x1
 2270 052e 0000 0000 		.long	.LASF23
 2271 0532 06        		.byte	0x6
 2272 0533 4B        		.byte	0x4b
 2273 0534 01        		.byte	0x1
 2274 0535 0000 0000 		.long	.LFB13
 2275 0539 0000 0000 		.long	.LFE13
 2276 053d 02        		.byte	0x2
 2277 053e 90        		.byte	0x90
 2278 053f 20        		.uleb128 0x20
 2279 0540 14        		.uleb128 0x14
 2280 0541 7374 7200 		.string	"str"
 2281 0545 06        		.byte	0x6
 2282 0546 4B        		.byte	0x4b
 2283 0547 1B05 0000 		.long	0x51b
 2284 054b 0000 0000 		.long	.LLST19
 2285 054f 14        		.uleb128 0x14
 2286 0550 726F 7700 		.string	"row"
 2287 0554 06        		.byte	0x6
 2288 0555 4B        		.byte	0x4b
 2289 0556 3300 0000 		.long	0x33
 2290 055a 0000 0000 		.long	.LLST20
 2291 055e 00        		.byte	0x0
 2292 055f 09        		.uleb128 0x9
 2293 0560 A505 0000 		.long	0x5a5
 2294 0564 01        		.byte	0x1
 2295 0565 0000 0000 		.long	.LASF24
 2296 0569 06        		.byte	0x6
 2297 056a 3F        		.byte	0x3f
 2298 056b 01        		.byte	0x1
 2299 056c 0000 0000 		.long	.LFB12
 2300 0570 0000 0000 		.long	.LFE12
 2301 0574 02        		.byte	0x2
 2302 0575 90        		.byte	0x90
 2303 0576 20        		.uleb128 0x20
 2304 0577 14        		.uleb128 0x14
 2305 0578 7374 7200 		.string	"str"
 2306 057c 06        		.byte	0x6
 2307 057d 3F        		.byte	0x3f
 2308 057e 1B05 0000 		.long	0x51b
GAS LISTING C:\Users\jeroe\AppData\Local\Temp/ccgfX1oo.s 			page 42


 2309 0582 0000 0000 		.long	.LLST22
 2310 0586 14        		.uleb128 0x14
 2311 0587 726F 7700 		.string	"row"
 2312 058b 06        		.byte	0x6
 2313 058c 3F        		.byte	0x3f
 2314 058d 3300 0000 		.long	0x33
 2315 0591 0000 0000 		.long	.LLST23
 2316 0595 1A        		.uleb128 0x1a
 2317 0596 0000 0000 		.long	.LASF25
 2318 059a 06        		.byte	0x6
 2319 059b 3F        		.byte	0x3f
 2320 059c 3300 0000 		.long	0x33
 2321 05a0 0000 0000 		.long	.LLST24
 2322 05a4 00        		.byte	0x0
 2323 05a5 09        		.uleb128 0x9
 2324 05a6 2B06 0000 		.long	0x62b
 2325 05aa 01        		.byte	0x1
 2326 05ab 0000 0000 		.long	.LASF26
 2327 05af 06        		.byte	0x6
 2328 05b0 07        		.byte	0x7
 2329 05b1 01        		.byte	0x1
 2330 05b2 0000 0000 		.long	.LFB6
 2331 05b6 0000 0000 		.long	.LFE6
 2332 05ba 02        		.byte	0x2
 2333 05bb 90        		.byte	0x90
 2334 05bc 20        		.uleb128 0x20
 2335 05bd 14        		.uleb128 0x14
 2336 05be 6D73 00   		.string	"ms"
 2337 05c1 06        		.byte	0x6
 2338 05c2 07        		.byte	0x7
 2339 05c3 3300 0000 		.long	0x33
 2340 05c7 0000 0000 		.long	.LLST26
 2341 05cb 0D        		.uleb128 0xd
 2342 05cc 0000 0000 		.long	.LBB101
 2343 05d0 0000 0000 		.long	.LBE101
 2344 05d4 1B        		.uleb128 0x1b
 2345 05d5 6900      		.string	"i"
 2346 05d7 06        		.byte	0x6
 2347 05d8 08        		.byte	0x8
 2348 05d9 3300 0000 		.long	0x33
 2349 05dd 06        		.byte	0x6
 2350 05de 62        		.byte	0x62
 2351 05df 93        		.byte	0x93
 2352 05e0 01        		.uleb128 0x1
 2353 05e1 63        		.byte	0x63
 2354 05e2 93        		.byte	0x93
 2355 05e3 01        		.uleb128 0x1
 2356 05e4 0F        		.uleb128 0xf
 2357 05e5 8100 0000 		.long	0x81
 2358 05e9 0000 0000 		.long	.LBB102
 2359 05ed 0000 0000 		.long	.LBE102
 2360 05f1 06        		.byte	0x6
 2361 05f2 09        		.byte	0x9
 2362 05f3 0C        		.uleb128 0xc
 2363 05f4 8E00 0000 		.long	0x8e
 2364 05f8 0D        		.uleb128 0xd
 2365 05f9 0000 0000 		.long	.LBB103
GAS LISTING C:\Users\jeroe\AppData\Local\Temp/ccgfX1oo.s 			page 43


 2366 05fd 0000 0000 		.long	.LBE103
 2367 0601 0E        		.uleb128 0xe
 2368 0602 9900 0000 		.long	0x99
 2369 0606 0E        		.uleb128 0xe
 2370 0607 A400 0000 		.long	0xa4
 2371 060b 0F        		.uleb128 0xf
 2372 060c 6800 0000 		.long	0x68
 2373 0610 0000 0000 		.long	.LBB104
 2374 0614 0000 0000 		.long	.LBE104
 2375 0618 05        		.byte	0x5
 2376 0619 8A        		.byte	0x8a
 2377 061a 10        		.uleb128 0x10
 2378 061b 7500 0000 		.long	0x75
 2379 061f 06        		.byte	0x6
 2380 0620 68        		.byte	0x68
 2381 0621 93        		.byte	0x93
 2382 0622 01        		.uleb128 0x1
 2383 0623 69        		.byte	0x69
 2384 0624 93        		.byte	0x93
 2385 0625 01        		.uleb128 0x1
 2386 0626 00        		.byte	0x0
 2387 0627 00        		.byte	0x0
 2388 0628 00        		.byte	0x0
 2389 0629 00        		.byte	0x0
 2390 062a 00        		.byte	0x0
 2391 062b 09        		.uleb128 0x9
 2392 062c DA06 0000 		.long	0x6da
 2393 0630 01        		.byte	0x1
 2394 0631 0000 0000 		.long	.LASF27
 2395 0635 06        		.byte	0x6
 2396 0636 21        		.byte	0x21
 2397 0637 01        		.byte	0x1
 2398 0638 0000 0000 		.long	.LFB9
 2399 063c 0000 0000 		.long	.LFE9
 2400 0640 02        		.byte	0x2
 2401 0641 90        		.byte	0x90
 2402 0642 20        		.uleb128 0x20
 2403 0643 1B        		.uleb128 0x1b
 2404 0644 7374 7200 		.string	"str"
 2405 0648 06        		.byte	0x6
 2406 0649 27        		.byte	0x27
 2407 064a DA06 0000 		.long	0x6da
 2408 064e 02        		.byte	0x2
 2409 064f 8C        		.byte	0x8c
 2410 0650 01        		.sleb128 1
 2411 0651 0B        		.uleb128 0xb
 2412 0652 9706 0000 		.long	0x697
 2413 0656 8100 0000 		.long	0x81
 2414 065a 0000 0000 		.long	.LBB114
 2415 065e 0000 0000 		.long	.LBE114
 2416 0662 06        		.byte	0x6
 2417 0663 24        		.byte	0x24
 2418 0664 0C        		.uleb128 0xc
 2419 0665 8E00 0000 		.long	0x8e
 2420 0669 0D        		.uleb128 0xd
 2421 066a 0000 0000 		.long	.LBB115
 2422 066e 0000 0000 		.long	.LBE115
GAS LISTING C:\Users\jeroe\AppData\Local\Temp/ccgfX1oo.s 			page 44


 2423 0672 0E        		.uleb128 0xe
 2424 0673 9900 0000 		.long	0x99
 2425 0677 0E        		.uleb128 0xe
 2426 0678 A400 0000 		.long	0xa4
 2427 067c 0F        		.uleb128 0xf
 2428 067d 6800 0000 		.long	0x68
 2429 0681 0000 0000 		.long	.LBB116
 2430 0685 0000 0000 		.long	.LBE116
 2431 0689 05        		.byte	0x5
 2432 068a 8A        		.byte	0x8a
 2433 068b 12        		.uleb128 0x12
 2434 068c 7500 0000 		.long	0x75
 2435 0690 0000 0000 		.long	.LLST28
 2436 0694 00        		.byte	0x0
 2437 0695 00        		.byte	0x0
 2438 0696 00        		.byte	0x0
 2439 0697 0F        		.uleb128 0xf
 2440 0698 8100 0000 		.long	0x81
 2441 069c 0000 0000 		.long	.LBB118
 2442 06a0 0000 0000 		.long	.LBE118
 2443 06a4 06        		.byte	0x6
 2444 06a5 26        		.byte	0x26
 2445 06a6 0C        		.uleb128 0xc
 2446 06a7 8E00 0000 		.long	0x8e
 2447 06ab 0D        		.uleb128 0xd
 2448 06ac 0000 0000 		.long	.LBB119
 2449 06b0 0000 0000 		.long	.LBE119
 2450 06b4 0E        		.uleb128 0xe
 2451 06b5 9900 0000 		.long	0x99
 2452 06b9 0E        		.uleb128 0xe
 2453 06ba A400 0000 		.long	0xa4
 2454 06be 0F        		.uleb128 0xf
 2455 06bf 6800 0000 		.long	0x68
 2456 06c3 0000 0000 		.long	.LBB120
 2457 06c7 0000 0000 		.long	.LBE120
 2458 06cb 05        		.byte	0x5
 2459 06cc 8A        		.byte	0x8a
 2460 06cd 12        		.uleb128 0x12
 2461 06ce 7500 0000 		.long	0x75
 2462 06d2 0000 0000 		.long	.LLST29
 2463 06d6 00        		.byte	0x0
 2464 06d7 00        		.byte	0x0
 2465 06d8 00        		.byte	0x0
 2466 06d9 00        		.byte	0x0
 2467 06da 1C        		.uleb128 0x1c
 2468 06db EA06 0000 		.long	0x6ea
 2469 06df 2105 0000 		.long	0x521
 2470 06e3 1D        		.uleb128 0x1d
 2471 06e4 EA06 0000 		.long	0x6ea
 2472 06e8 0F        		.byte	0xf
 2473 06e9 00        		.byte	0x0
 2474 06ea 02        		.uleb128 0x2
 2475 06eb 0000 0000 		.long	.LASF2
 2476 06ef 02        		.byte	0x2
 2477 06f0 07        		.byte	0x7
 2478 06f1 00        		.byte	0x0
 2479               		.section	.debug_abbrev
GAS LISTING C:\Users\jeroe\AppData\Local\Temp/ccgfX1oo.s 			page 45


 2480 0000 01        		.uleb128 0x1
 2481 0001 11        		.uleb128 0x11
 2482 0002 01        		.byte	0x1
 2483 0003 10        		.uleb128 0x10
 2484 0004 06        		.uleb128 0x6
 2485 0005 12        		.uleb128 0x12
 2486 0006 01        		.uleb128 0x1
 2487 0007 11        		.uleb128 0x11
 2488 0008 01        		.uleb128 0x1
 2489 0009 25        		.uleb128 0x25
 2490 000a 0E        		.uleb128 0xe
 2491 000b 13        		.uleb128 0x13
 2492 000c 0B        		.uleb128 0xb
 2493 000d 03        		.uleb128 0x3
 2494 000e 0E        		.uleb128 0xe
 2495 000f 1B        		.uleb128 0x1b
 2496 0010 0E        		.uleb128 0xe
 2497 0011 00        		.byte	0x0
 2498 0012 00        		.byte	0x0
 2499 0013 02        		.uleb128 0x2
 2500 0014 24        		.uleb128 0x24
 2501 0015 00        		.byte	0x0
 2502 0016 03        		.uleb128 0x3
 2503 0017 0E        		.uleb128 0xe
 2504 0018 0B        		.uleb128 0xb
 2505 0019 0B        		.uleb128 0xb
 2506 001a 3E        		.uleb128 0x3e
 2507 001b 0B        		.uleb128 0xb
 2508 001c 00        		.byte	0x0
 2509 001d 00        		.byte	0x0
 2510 001e 03        		.uleb128 0x3
 2511 001f 24        		.uleb128 0x24
 2512 0020 00        		.byte	0x0
 2513 0021 03        		.uleb128 0x3
 2514 0022 08        		.uleb128 0x8
 2515 0023 0B        		.uleb128 0xb
 2516 0024 0B        		.uleb128 0xb
 2517 0025 3E        		.uleb128 0x3e
 2518 0026 0B        		.uleb128 0xb
 2519 0027 00        		.byte	0x0
 2520 0028 00        		.byte	0x0
 2521 0029 04        		.uleb128 0x4
 2522 002a 16        		.uleb128 0x16
 2523 002b 00        		.byte	0x0
 2524 002c 03        		.uleb128 0x3
 2525 002d 0E        		.uleb128 0xe
 2526 002e 3A        		.uleb128 0x3a
 2527 002f 0B        		.uleb128 0xb
 2528 0030 3B        		.uleb128 0x3b
 2529 0031 0B        		.uleb128 0xb
 2530 0032 49        		.uleb128 0x49
 2531 0033 13        		.uleb128 0x13
 2532 0034 00        		.byte	0x0
 2533 0035 00        		.byte	0x0
 2534 0036 05        		.uleb128 0x5
 2535 0037 2E        		.uleb128 0x2e
 2536 0038 01        		.byte	0x1
GAS LISTING C:\Users\jeroe\AppData\Local\Temp/ccgfX1oo.s 			page 46


 2537 0039 01        		.uleb128 0x1
 2538 003a 13        		.uleb128 0x13
 2539 003b 03        		.uleb128 0x3
 2540 003c 0E        		.uleb128 0xe
 2541 003d 3A        		.uleb128 0x3a
 2542 003e 0B        		.uleb128 0xb
 2543 003f 3B        		.uleb128 0x3b
 2544 0040 0B        		.uleb128 0xb
 2545 0041 27        		.uleb128 0x27
 2546 0042 0C        		.uleb128 0xc
 2547 0043 20        		.uleb128 0x20
 2548 0044 0B        		.uleb128 0xb
 2549 0045 00        		.byte	0x0
 2550 0046 00        		.byte	0x0
 2551 0047 06        		.uleb128 0x6
 2552 0048 05        		.uleb128 0x5
 2553 0049 00        		.byte	0x0
 2554 004a 03        		.uleb128 0x3
 2555 004b 0E        		.uleb128 0xe
 2556 004c 3A        		.uleb128 0x3a
 2557 004d 0B        		.uleb128 0xb
 2558 004e 3B        		.uleb128 0x3b
 2559 004f 0B        		.uleb128 0xb
 2560 0050 49        		.uleb128 0x49
 2561 0051 13        		.uleb128 0x13
 2562 0052 00        		.byte	0x0
 2563 0053 00        		.byte	0x0
 2564 0054 07        		.uleb128 0x7
 2565 0055 34        		.uleb128 0x34
 2566 0056 00        		.byte	0x0
 2567 0057 03        		.uleb128 0x3
 2568 0058 0E        		.uleb128 0xe
 2569 0059 3A        		.uleb128 0x3a
 2570 005a 0B        		.uleb128 0xb
 2571 005b 3B        		.uleb128 0x3b
 2572 005c 0B        		.uleb128 0xb
 2573 005d 49        		.uleb128 0x49
 2574 005e 13        		.uleb128 0x13
 2575 005f 00        		.byte	0x0
 2576 0060 00        		.byte	0x0
 2577 0061 08        		.uleb128 0x8
 2578 0062 0B        		.uleb128 0xb
 2579 0063 00        		.byte	0x0
 2580 0064 00        		.byte	0x0
 2581 0065 00        		.byte	0x0
 2582 0066 09        		.uleb128 0x9
 2583 0067 2E        		.uleb128 0x2e
 2584 0068 01        		.byte	0x1
 2585 0069 01        		.uleb128 0x1
 2586 006a 13        		.uleb128 0x13
 2587 006b 3F        		.uleb128 0x3f
 2588 006c 0C        		.uleb128 0xc
 2589 006d 03        		.uleb128 0x3
 2590 006e 0E        		.uleb128 0xe
 2591 006f 3A        		.uleb128 0x3a
 2592 0070 0B        		.uleb128 0xb
 2593 0071 3B        		.uleb128 0x3b
GAS LISTING C:\Users\jeroe\AppData\Local\Temp/ccgfX1oo.s 			page 47


 2594 0072 0B        		.uleb128 0xb
 2595 0073 27        		.uleb128 0x27
 2596 0074 0C        		.uleb128 0xc
 2597 0075 11        		.uleb128 0x11
 2598 0076 01        		.uleb128 0x1
 2599 0077 12        		.uleb128 0x12
 2600 0078 01        		.uleb128 0x1
 2601 0079 40        		.uleb128 0x40
 2602 007a 0A        		.uleb128 0xa
 2603 007b 00        		.byte	0x0
 2604 007c 00        		.byte	0x0
 2605 007d 0A        		.uleb128 0xa
 2606 007e 05        		.uleb128 0x5
 2607 007f 00        		.byte	0x0
 2608 0080 03        		.uleb128 0x3
 2609 0081 08        		.uleb128 0x8
 2610 0082 3A        		.uleb128 0x3a
 2611 0083 0B        		.uleb128 0xb
 2612 0084 3B        		.uleb128 0x3b
 2613 0085 0B        		.uleb128 0xb
 2614 0086 49        		.uleb128 0x49
 2615 0087 13        		.uleb128 0x13
 2616 0088 02        		.uleb128 0x2
 2617 0089 0A        		.uleb128 0xa
 2618 008a 00        		.byte	0x0
 2619 008b 00        		.byte	0x0
 2620 008c 0B        		.uleb128 0xb
 2621 008d 1D        		.uleb128 0x1d
 2622 008e 01        		.byte	0x1
 2623 008f 01        		.uleb128 0x1
 2624 0090 13        		.uleb128 0x13
 2625 0091 31        		.uleb128 0x31
 2626 0092 13        		.uleb128 0x13
 2627 0093 11        		.uleb128 0x11
 2628 0094 01        		.uleb128 0x1
 2629 0095 12        		.uleb128 0x12
 2630 0096 01        		.uleb128 0x1
 2631 0097 58        		.uleb128 0x58
 2632 0098 0B        		.uleb128 0xb
 2633 0099 59        		.uleb128 0x59
 2634 009a 0B        		.uleb128 0xb
 2635 009b 00        		.byte	0x0
 2636 009c 00        		.byte	0x0
 2637 009d 0C        		.uleb128 0xc
 2638 009e 05        		.uleb128 0x5
 2639 009f 00        		.byte	0x0
 2640 00a0 31        		.uleb128 0x31
 2641 00a1 13        		.uleb128 0x13
 2642 00a2 00        		.byte	0x0
 2643 00a3 00        		.byte	0x0
 2644 00a4 0D        		.uleb128 0xd
 2645 00a5 0B        		.uleb128 0xb
 2646 00a6 01        		.byte	0x1
 2647 00a7 11        		.uleb128 0x11
 2648 00a8 01        		.uleb128 0x1
 2649 00a9 12        		.uleb128 0x12
 2650 00aa 01        		.uleb128 0x1
GAS LISTING C:\Users\jeroe\AppData\Local\Temp/ccgfX1oo.s 			page 48


 2651 00ab 00        		.byte	0x0
 2652 00ac 00        		.byte	0x0
 2653 00ad 0E        		.uleb128 0xe
 2654 00ae 34        		.uleb128 0x34
 2655 00af 00        		.byte	0x0
 2656 00b0 31        		.uleb128 0x31
 2657 00b1 13        		.uleb128 0x13
 2658 00b2 00        		.byte	0x0
 2659 00b3 00        		.byte	0x0
 2660 00b4 0F        		.uleb128 0xf
 2661 00b5 1D        		.uleb128 0x1d
 2662 00b6 01        		.byte	0x1
 2663 00b7 31        		.uleb128 0x31
 2664 00b8 13        		.uleb128 0x13
 2665 00b9 11        		.uleb128 0x11
 2666 00ba 01        		.uleb128 0x1
 2667 00bb 12        		.uleb128 0x12
 2668 00bc 01        		.uleb128 0x1
 2669 00bd 58        		.uleb128 0x58
 2670 00be 0B        		.uleb128 0xb
 2671 00bf 59        		.uleb128 0x59
 2672 00c0 0B        		.uleb128 0xb
 2673 00c1 00        		.byte	0x0
 2674 00c2 00        		.byte	0x0
 2675 00c3 10        		.uleb128 0x10
 2676 00c4 05        		.uleb128 0x5
 2677 00c5 00        		.byte	0x0
 2678 00c6 31        		.uleb128 0x31
 2679 00c7 13        		.uleb128 0x13
 2680 00c8 02        		.uleb128 0x2
 2681 00c9 0A        		.uleb128 0xa
 2682 00ca 00        		.byte	0x0
 2683 00cb 00        		.byte	0x0
 2684 00cc 11        		.uleb128 0x11
 2685 00cd 2E        		.uleb128 0x2e
 2686 00ce 00        		.byte	0x0
 2687 00cf 3F        		.uleb128 0x3f
 2688 00d0 0C        		.uleb128 0xc
 2689 00d1 03        		.uleb128 0x3
 2690 00d2 0E        		.uleb128 0xe
 2691 00d3 3A        		.uleb128 0x3a
 2692 00d4 0B        		.uleb128 0xb
 2693 00d5 3B        		.uleb128 0x3b
 2694 00d6 0B        		.uleb128 0xb
 2695 00d7 11        		.uleb128 0x11
 2696 00d8 01        		.uleb128 0x1
 2697 00d9 12        		.uleb128 0x12
 2698 00da 01        		.uleb128 0x1
 2699 00db 40        		.uleb128 0x40
 2700 00dc 0A        		.uleb128 0xa
 2701 00dd 00        		.byte	0x0
 2702 00de 00        		.byte	0x0
 2703 00df 12        		.uleb128 0x12
 2704 00e0 05        		.uleb128 0x5
 2705 00e1 00        		.byte	0x0
 2706 00e2 31        		.uleb128 0x31
 2707 00e3 13        		.uleb128 0x13
GAS LISTING C:\Users\jeroe\AppData\Local\Temp/ccgfX1oo.s 			page 49


 2708 00e4 02        		.uleb128 0x2
 2709 00e5 06        		.uleb128 0x6
 2710 00e6 00        		.byte	0x0
 2711 00e7 00        		.byte	0x0
 2712 00e8 13        		.uleb128 0x13
 2713 00e9 2E        		.uleb128 0x2e
 2714 00ea 00        		.byte	0x0
 2715 00eb 3F        		.uleb128 0x3f
 2716 00ec 0C        		.uleb128 0xc
 2717 00ed 03        		.uleb128 0x3
 2718 00ee 0E        		.uleb128 0xe
 2719 00ef 3A        		.uleb128 0x3a
 2720 00f0 0B        		.uleb128 0xb
 2721 00f1 3B        		.uleb128 0x3b
 2722 00f2 0B        		.uleb128 0xb
 2723 00f3 27        		.uleb128 0x27
 2724 00f4 0C        		.uleb128 0xc
 2725 00f5 11        		.uleb128 0x11
 2726 00f6 01        		.uleb128 0x1
 2727 00f7 12        		.uleb128 0x12
 2728 00f8 01        		.uleb128 0x1
 2729 00f9 40        		.uleb128 0x40
 2730 00fa 0A        		.uleb128 0xa
 2731 00fb 00        		.byte	0x0
 2732 00fc 00        		.byte	0x0
 2733 00fd 14        		.uleb128 0x14
 2734 00fe 05        		.uleb128 0x5
 2735 00ff 00        		.byte	0x0
 2736 0100 03        		.uleb128 0x3
 2737 0101 08        		.uleb128 0x8
 2738 0102 3A        		.uleb128 0x3a
 2739 0103 0B        		.uleb128 0xb
 2740 0104 3B        		.uleb128 0x3b
 2741 0105 0B        		.uleb128 0xb
 2742 0106 49        		.uleb128 0x49
 2743 0107 13        		.uleb128 0x13
 2744 0108 02        		.uleb128 0x2
 2745 0109 06        		.uleb128 0x6
 2746 010a 00        		.byte	0x0
 2747 010b 00        		.byte	0x0
 2748 010c 15        		.uleb128 0x15
 2749 010d 34        		.uleb128 0x34
 2750 010e 00        		.byte	0x0
 2751 010f 03        		.uleb128 0x3
 2752 0110 0E        		.uleb128 0xe
 2753 0111 3A        		.uleb128 0x3a
 2754 0112 0B        		.uleb128 0xb
 2755 0113 3B        		.uleb128 0x3b
 2756 0114 0B        		.uleb128 0xb
 2757 0115 49        		.uleb128 0x49
 2758 0116 13        		.uleb128 0x13
 2759 0117 02        		.uleb128 0x2
 2760 0118 06        		.uleb128 0x6
 2761 0119 00        		.byte	0x0
 2762 011a 00        		.byte	0x0
 2763 011b 16        		.uleb128 0x16
 2764 011c 0B        		.uleb128 0xb
GAS LISTING C:\Users\jeroe\AppData\Local\Temp/ccgfX1oo.s 			page 50


 2765 011d 01        		.byte	0x1
 2766 011e 01        		.uleb128 0x1
 2767 011f 13        		.uleb128 0x13
 2768 0120 11        		.uleb128 0x11
 2769 0121 01        		.uleb128 0x1
 2770 0122 12        		.uleb128 0x12
 2771 0123 01        		.uleb128 0x1
 2772 0124 00        		.byte	0x0
 2773 0125 00        		.byte	0x0
 2774 0126 17        		.uleb128 0x17
 2775 0127 34        		.uleb128 0x34
 2776 0128 00        		.byte	0x0
 2777 0129 03        		.uleb128 0x3
 2778 012a 08        		.uleb128 0x8
 2779 012b 3A        		.uleb128 0x3a
 2780 012c 0B        		.uleb128 0xb
 2781 012d 3B        		.uleb128 0x3b
 2782 012e 0B        		.uleb128 0xb
 2783 012f 49        		.uleb128 0x49
 2784 0130 13        		.uleb128 0x13
 2785 0131 00        		.byte	0x0
 2786 0132 00        		.byte	0x0
 2787 0133 18        		.uleb128 0x18
 2788 0134 34        		.uleb128 0x34
 2789 0135 00        		.byte	0x0
 2790 0136 03        		.uleb128 0x3
 2791 0137 08        		.uleb128 0x8
 2792 0138 3A        		.uleb128 0x3a
 2793 0139 0B        		.uleb128 0xb
 2794 013a 3B        		.uleb128 0x3b
 2795 013b 0B        		.uleb128 0xb
 2796 013c 49        		.uleb128 0x49
 2797 013d 13        		.uleb128 0x13
 2798 013e 02        		.uleb128 0x2
 2799 013f 06        		.uleb128 0x6
 2800 0140 00        		.byte	0x0
 2801 0141 00        		.byte	0x0
 2802 0142 19        		.uleb128 0x19
 2803 0143 0F        		.uleb128 0xf
 2804 0144 00        		.byte	0x0
 2805 0145 0B        		.uleb128 0xb
 2806 0146 0B        		.uleb128 0xb
 2807 0147 49        		.uleb128 0x49
 2808 0148 13        		.uleb128 0x13
 2809 0149 00        		.byte	0x0
 2810 014a 00        		.byte	0x0
 2811 014b 1A        		.uleb128 0x1a
 2812 014c 05        		.uleb128 0x5
 2813 014d 00        		.byte	0x0
 2814 014e 03        		.uleb128 0x3
 2815 014f 0E        		.uleb128 0xe
 2816 0150 3A        		.uleb128 0x3a
 2817 0151 0B        		.uleb128 0xb
 2818 0152 3B        		.uleb128 0x3b
 2819 0153 0B        		.uleb128 0xb
 2820 0154 49        		.uleb128 0x49
 2821 0155 13        		.uleb128 0x13
GAS LISTING C:\Users\jeroe\AppData\Local\Temp/ccgfX1oo.s 			page 51


 2822 0156 02        		.uleb128 0x2
 2823 0157 06        		.uleb128 0x6
 2824 0158 00        		.byte	0x0
 2825 0159 00        		.byte	0x0
 2826 015a 1B        		.uleb128 0x1b
 2827 015b 34        		.uleb128 0x34
 2828 015c 00        		.byte	0x0
 2829 015d 03        		.uleb128 0x3
 2830 015e 08        		.uleb128 0x8
 2831 015f 3A        		.uleb128 0x3a
 2832 0160 0B        		.uleb128 0xb
 2833 0161 3B        		.uleb128 0x3b
 2834 0162 0B        		.uleb128 0xb
 2835 0163 49        		.uleb128 0x49
 2836 0164 13        		.uleb128 0x13
 2837 0165 02        		.uleb128 0x2
 2838 0166 0A        		.uleb128 0xa
 2839 0167 00        		.byte	0x0
 2840 0168 00        		.byte	0x0
 2841 0169 1C        		.uleb128 0x1c
 2842 016a 01        		.uleb128 0x1
 2843 016b 01        		.byte	0x1
 2844 016c 01        		.uleb128 0x1
 2845 016d 13        		.uleb128 0x13
 2846 016e 49        		.uleb128 0x49
 2847 016f 13        		.uleb128 0x13
 2848 0170 00        		.byte	0x0
 2849 0171 00        		.byte	0x0
 2850 0172 1D        		.uleb128 0x1d
 2851 0173 21        		.uleb128 0x21
 2852 0174 00        		.byte	0x0
 2853 0175 49        		.uleb128 0x49
 2854 0176 13        		.uleb128 0x13
 2855 0177 2F        		.uleb128 0x2f
 2856 0178 0B        		.uleb128 0xb
 2857 0179 00        		.byte	0x0
 2858 017a 00        		.byte	0x0
 2859 017b 00        		.byte	0x0
 2860               		.section	.debug_pubnames,"",@progbits
 2861 0000 BB00 0000 		.long	0xbb
 2862 0004 0200      		.word	0x2
 2863 0006 0000 0000 		.long	.Ldebug_info0
 2864 000a F206 0000 		.long	0x6f2
 2865 000e B800 0000 		.long	0xb8
 2866 0012 6C63 645F 		.string	"lcd_command"
 2866      636F 6D6D 
 2866      616E 6400 
 2867 001e 6C01 0000 		.long	0x16c
 2868 0022 636C 6561 		.string	"clearDisplay"
 2868      7244 6973 
 2868      706C 6179 
 2868      00
 2869 002f 7F01 0000 		.long	0x17f
 2870 0033 696E 6974 		.string	"init"
 2870      00
 2871 0038 3E03 0000 		.long	0x33e
 2872 003c 746F 6767 		.string	"toggleE"
GAS LISTING C:\Users\jeroe\AppData\Local\Temp/ccgfX1oo.s 			page 52


 2872      6C65 4500 
 2873 0044 5203 0000 		.long	0x352
 2874 0048 6C63 645F 		.string	"lcd_setLine"
 2874      7365 744C 
 2874      696E 6500 
 2875 0054 7A03 0000 		.long	0x37a
 2876 0058 6C63 645F 		.string	"lcd_writeChar"
 2876      7772 6974 
 2876      6543 6861 
 2876      7200 
 2877 0066 7904 0000 		.long	0x479
 2878 006a 6469 7370 		.string	"display_text_noscroll"
 2878      6C61 795F 
 2878      7465 7874 
 2878      5F6E 6F73 
 2878      6372 6F6C 
 2879 0080 2805 0000 		.long	0x528
 2880 0084 6469 7370 		.string	"display_text_scroll"
 2880      6C61 795F 
 2880      7465 7874 
 2880      5F73 6372 
 2880      6F6C 6C00 
 2881 0098 5F05 0000 		.long	0x55f
 2882 009c 6469 7370 		.string	"display_text"
 2882      6C61 795F 
 2882      7465 7874 
 2882      00
 2883 00a9 A505 0000 		.long	0x5a5
 2884 00ad 7761 6974 		.string	"wait"
 2884      00
 2885 00b2 2B06 0000 		.long	0x62b
 2886 00b6 6D61 696E 		.string	"main"
 2886      00
 2887 00bb 0000 0000 		.long	0x0
 2888               		.section	.debug_aranges,"",@progbits
 2889 0000 1C00 0000 		.long	0x1c
 2890 0004 0200      		.word	0x2
 2891 0006 0000 0000 		.long	.Ldebug_info0
 2892 000a 04        		.byte	0x4
 2893 000b 00        		.byte	0x0
 2894 000c 0000      		.word	0x0
 2895 000e 0000      		.word	0x0
 2896 0010 0000 0000 		.long	.Ltext0
 2897 0014 2C02 0000 		.long	.Letext0-.Ltext0
 2898 0018 0000 0000 		.long	0x0
 2899 001c 0000 0000 		.long	0x0
 2900               		.section	.debug_str,"MS",@progbits,1
 2901               	.LASF14:
 2902 0000 6C63 645F 		.string	"lcd_command"
 2902      636F 6D6D 
 2902      616E 6400 
 2903               	.LASF24:
 2904 000c 6469 7370 		.string	"display_text"
 2904      6C61 795F 
 2904      7465 7874 
 2904      00
 2905               	.LASF15:
GAS LISTING C:\Users\jeroe\AppData\Local\Temp/ccgfX1oo.s 			page 53


 2906 0019 696E 6974 		.string	"init"
 2906      00
 2907               	.LASF26:
 2908 001e 7761 6974 		.string	"wait"
 2908      00
 2909               	.LASF1:
 2910 0023 756E 7369 		.string	"unsigned char"
 2910      676E 6564 
 2910      2063 6861 
 2910      7200 
 2911               	.LASF19:
 2912 0031 6C63 645F 		.string	"lcd_writeChar"
 2912      7772 6974 
 2912      6543 6861 
 2912      7200 
 2913               	.LASF7:
 2914 003f 5F64 656C 		.string	"_delay_loop_2"
 2914      6179 5F6C 
 2914      6F6F 705F 
 2914      3200 
 2915               	.LASF4:
 2916 004d 6C6F 6E67 		.string	"long unsigned int"
 2916      2075 6E73 
 2916      6967 6E65 
 2916      6420 696E 
 2916      7400 
 2917               	.LASF18:
 2918 005f 6C63 645F 		.string	"lcd_setLine"
 2918      7365 744C 
 2918      696E 6500 
 2919               	.LASF8:
 2920 006b 5F64 656C 		.string	"_delay_ms"
 2920      6179 5F6D 
 2920      7300 
 2921               	.LASF16:
 2922 0075 636C 6561 		.string	"clearDisplay"
 2922      7244 6973 
 2922      706C 6179 
 2922      00
 2923               	.LASF13:
 2924 0082 646F 7562 		.string	"double"
 2924      6C65 00
 2925               	.LASF12:
 2926 0089 5F5F 746D 		.string	"__tmp"
 2926      7000 
 2927               	.LASF27:
 2928 008f 6D61 696E 		.string	"main"
 2928      00
 2929               	.LASF30:
 2930 0094 433A 5C55 		.string	"C:\\Users\\jeroe\\Desktop\\map\\school\\MicroControllers\\week 3\\b1"
 2930      7365 7273 
 2930      5C6A 6572 
 2930      6F65 5C44 
 2930      6573 6B74 
 2931               	.LASF2:
 2932 00d1 756E 7369 		.string	"unsigned int"
 2932      676E 6564 
GAS LISTING C:\Users\jeroe\AppData\Local\Temp/ccgfX1oo.s 			page 54


 2932      2069 6E74 
 2932      00
 2933               	.LASF6:
 2934 00de 6C6F 6E67 		.string	"long long unsigned int"
 2934      206C 6F6E 
 2934      6720 756E 
 2934      7369 676E 
 2934      6564 2069 
 2935               	.LASF20:
 2936 00f5 6469 7370 		.string	"display_text_noscroll"
 2936      6C61 795F 
 2936      7465 7874 
 2936      5F6E 6F73 
 2936      6372 6F6C 
 2937               	.LASF5:
 2938 010b 6C6F 6E67 		.string	"long long int"
 2938      206C 6F6E 
 2938      6720 696E 
 2938      7400 
 2939               	.LASF17:
 2940 0119 746F 6767 		.string	"toggleE"
 2940      6C65 4500 
 2941               	.LASF22:
 2942 0121 6368 6172 		.string	"char"
 2942      00
 2943               	.LASF29:
 2944 0126 6C63 642E 		.string	"lcd.c"
 2944      6300 
 2945               	.LASF23:
 2946 012c 6469 7370 		.string	"display_text_scroll"
 2946      6C61 795F 
 2946      7465 7874 
 2946      5F73 6372 
 2946      6F6C 6C00 
 2947               	.LASF9:
 2948 0140 5F5F 636F 		.string	"__count"
 2948      756E 7400 
 2949               	.LASF28:
 2950 0148 474E 5520 		.string	"GNU C 4.1.2 (WinAVR 20070525)"
 2950      4320 342E 
 2950      312E 3220 
 2950      2857 696E 
 2950      4156 5220 
 2951               	.LASF31:
 2952 0166 7569 6E74 		.string	"uint16_t"
 2952      3136 5F74 
 2952      00
 2953               	.LASF11:
 2954 016f 5F5F 7469 		.string	"__ticks"
 2954      636B 7300 
 2955               	.LASF25:
 2956 0177 7363 726F 		.string	"scroll"
 2956      6C6C 00
 2957               	.LASF3:
 2958 017e 6C6F 6E67 		.string	"long int"
 2958      2069 6E74 
 2958      00
GAS LISTING C:\Users\jeroe\AppData\Local\Temp/ccgfX1oo.s 			page 55


 2959               	.LASF0:
 2960 0187 7369 676E 		.string	"signed char"
 2960      6564 2063 
 2960      6861 7200 
 2961               	.LASF21:
 2962 0193 7369 7A65 		.string	"size"
 2962      00
 2963               	.LASF10:
 2964 0198 5F5F 6D73 		.string	"__ms"
 2964      00
 2965               	/* File "lcd.c": code  308 = 0x0134 ( 264), prologues  20, epilogues  24 */
GAS LISTING C:\Users\jeroe\AppData\Local\Temp/ccgfX1oo.s 			page 56


DEFINED SYMBOLS
                            *ABS*:00000000 lcd.c
C:\Users\jeroe\AppData\Local\Temp/ccgfX1oo.s:3      *ABS*:0000003f __SREG__
C:\Users\jeroe\AppData\Local\Temp/ccgfX1oo.s:4      *ABS*:0000003e __SP_H__
C:\Users\jeroe\AppData\Local\Temp/ccgfX1oo.s:5      *ABS*:0000003d __SP_L__
C:\Users\jeroe\AppData\Local\Temp/ccgfX1oo.s:6      *ABS*:00000000 __tmp_reg__
C:\Users\jeroe\AppData\Local\Temp/ccgfX1oo.s:7      *ABS*:00000001 __zero_reg__
C:\Users\jeroe\AppData\Local\Temp/ccgfX1oo.s:20     .text:00000000 lcd_command
C:\Users\jeroe\AppData\Local\Temp/ccgfX1oo.s:82     .text:00000026 clearDisplay
C:\Users\jeroe\AppData\Local\Temp/ccgfX1oo.s:98     .text:0000002e init
C:\Users\jeroe\AppData\Local\Temp/ccgfX1oo.s:232    .text:0000008e toggleE
C:\Users\jeroe\AppData\Local\Temp/ccgfX1oo.s:249    .text:00000094 lcd_setLine
C:\Users\jeroe\AppData\Local\Temp/ccgfX1oo.s:282    .text:000000aa lcd_writeChar
C:\Users\jeroe\AppData\Local\Temp/ccgfX1oo.s:365    .text:000000e0 display_text_noscroll
C:\Users\jeroe\AppData\Local\Temp/ccgfX1oo.s:492    .text:00000188 display_text_scroll
C:\Users\jeroe\AppData\Local\Temp/ccgfX1oo.s:525    .text:000001ac display_text
C:\Users\jeroe\AppData\Local\Temp/ccgfX1oo.s:553    .text:000001be wait
C:\Users\jeroe\AppData\Local\Temp/ccgfX1oo.s:605    .text:000001dc main

UNDEFINED SYMBOLS
__do_copy_data
__do_clear_bss
__prologue_saves__
__epilogue_restores__
